__Unwind_CallPersonality
__ZN10duckdb_fmt2v68internal10basic_dataIvE6digitsE
__ZN11duckdb_zstd13ZSTDConstants7LL_baseE
__ZN11duckdb_zstd13ZSTDConstants7ML_baseE
__ZN11duckdb_zstd13ZSTDConstants7OF_baseE
__ZN11duckdb_zstd13ZSTDConstants7OF_bitsE
__ZN11duckdb_zstd17HUF_decompress4X1EPvmPKvm
__ZN11duckdb_zstd17HUF_decompress4X2EPvmPKvm
__ZN11duckdb_zstd21ZSTDInternalConstants13repStartValueE
__ZN11duckdb_zstd21ZSTDInternalConstants14LL_defaultNormE
__ZN11duckdb_zstd21ZSTDInternalConstants14ML_defaultNormE
__ZN11duckdb_zstd21ZSTDInternalConstants14OF_defaultNormE
__ZN11duckdb_zstd21ZSTDInternalConstants16ZSTD_defaultCMemE
__ZN11duckdb_zstd21ZSTDInternalConstants17LL_defaultNormLogE
__ZN11duckdb_zstd21ZSTDInternalConstants17ML_defaultNormLogE
__ZN11duckdb_zstd21ZSTDInternalConstants17OF_defaultNormLogE
__ZN11duckdb_zstd21ZSTDInternalConstants20ZSTD_blockHeaderSizeE
__ZN11duckdb_zstd21ZSTDInternalConstants7LL_bitsE
__ZN11duckdb_zstd21ZSTDInternalConstants7ML_bitsE
__ZN11duckdb_zstd23ZSTD_compressBlock_fastEPNS_17ZSTD_matchState_tEPNS_10seqStore_tEPjPKvm
__ZN11duckdb_zstd23ZSTD_compressBlock_lazyEPNS_17ZSTD_matchState_tEPNS_10seqStore_tEPjPKvm
__ZN11duckdb_zstd24ZSTD_compressBlock_btoptEPNS_17ZSTD_matchState_tEPNS_10seqStore_tEPjPKvm
__ZN11duckdb_zstd24ZSTD_compressBlock_lazy2EPNS_17ZSTD_matchState_tEPNS_10seqStore_tEPjPKvm
__ZN11duckdb_zstd25ZSTD_compressBlock_greedyEPNS_17ZSTD_matchState_tEPNS_10seqStore_tEPjPKvm
__ZN11duckdb_zstd26ZSTD_compressBlock_btlazy2EPNS_17ZSTD_matchState_tEPNS_10seqStore_tEPjPKvm
__ZN11duckdb_zstd26ZSTD_compressBlock_btultraEPNS_17ZSTD_matchState_tEPNS_10seqStore_tEPjPKvm
__ZN11duckdb_zstd27ZSTD_compressBlock_btultra2EPNS_17ZSTD_matchState_tEPNS_10seqStore_tEPjPKvm
__ZN11duckdb_zstd29ZSTD_compressBlock_doubleFastEPNS_17ZSTD_matchState_tEPNS_10seqStore_tEPjPKvm
__ZN11duckdb_zstd31ZSTD_compressBlock_fast_extDictEPNS_17ZSTD_matchState_tEPNS_10seqStore_tEPjPKvm
__ZN11duckdb_zstd31ZSTD_compressBlock_lazy_extDictEPNS_17ZSTD_matchState_tEPNS_10seqStore_tEPjPKvm
__ZN11duckdb_zstd32ZSTD_compressBlock_btopt_extDictEPNS_17ZSTD_matchState_tEPNS_10seqStore_tEPjPKvm
__ZN11duckdb_zstd32ZSTD_compressBlock_lazy2_extDictEPNS_17ZSTD_matchState_tEPNS_10seqStore_tEPjPKvm
__ZN11duckdb_zstd33ZSTD_compressBlock_greedy_extDictEPNS_17ZSTD_matchState_tEPNS_10seqStore_tEPjPKvm
__ZN11duckdb_zstd34ZSTD_compressBlock_btlazy2_extDictEPNS_17ZSTD_matchState_tEPNS_10seqStore_tEPjPKvm
__ZN11duckdb_zstd34ZSTD_compressBlock_btultra_extDictEPNS_17ZSTD_matchState_tEPNS_10seqStore_tEPjPKvm
__ZN11duckdb_zstd37ZSTD_compressBlock_doubleFast_extDictEPNS_17ZSTD_matchState_tEPNS_10seqStore_tEPjPKvm
__ZN11duckdb_zstd38ZSTD_compressBlock_fast_dictMatchStateEPNS_17ZSTD_matchState_tEPNS_10seqStore_tEPjPKvm
__ZN11duckdb_zstd38ZSTD_compressBlock_lazy_dictMatchStateEPNS_17ZSTD_matchState_tEPNS_10seqStore_tEPjPKvm
__ZN11duckdb_zstd39ZSTD_compressBlock_btopt_dictMatchStateEPNS_17ZSTD_matchState_tEPNS_10seqStore_tEPjPKvm
__ZN11duckdb_zstd39ZSTD_compressBlock_lazy2_dictMatchStateEPNS_17ZSTD_matchState_tEPNS_10seqStore_tEPjPKvm
__ZN11duckdb_zstd40ZSTD_compressBlock_greedy_dictMatchStateEPNS_17ZSTD_matchState_tEPNS_10seqStore_tEPjPKvm
__ZN11duckdb_zstd41ZSTD_compressBlock_btlazy2_dictMatchStateEPNS_17ZSTD_matchState_tEPNS_10seqStore_tEPjPKvm
__ZN11duckdb_zstd41ZSTD_compressBlock_btultra_dictMatchStateEPNS_17ZSTD_matchState_tEPNS_10seqStore_tEPjPKvm
__ZN11duckdb_zstd44ZSTD_compressBlock_doubleFast_dictMatchStateEPNS_17ZSTD_matchState_tEPNS_10seqStore_tEPjPKvm
__ZN12duckdb_miniz10mz_deflateEPNS_11mz_stream_sEi
__ZN12duckdb_miniz10mz_inflateEPNS_11mz_stream_sEi
__ZN12duckdb_miniz13mz_deflateEndEPNS_11mz_stream_sE
__ZN12duckdb_miniz13mz_inflateEndEPNS_11mz_stream_sE
__ZN12duckdb_miniz15mz_deflateInit2EPNS_11mz_stream_sEiiiii
__ZN12duckdb_miniz15mz_inflateInit2EPNS_11mz_stream_sEi
__ZN12duckdb_miniz16mz_compressBoundEm
__ZN12duckdb_miniz8mz_crc32EmPKhm
__ZN12duckdb_miniz8mz_errorEi
__ZN13duckdb_apache6thrift10TExceptionC2ERKNSt3__212basic_stringIcNS2_11char_traitsIcEENS2_9allocatorIcEEEE
__ZN13duckdb_apache6thrift10TExceptionD0Ev
__ZN13duckdb_apache6thrift10TExceptionD2Ev
__ZN13duckdb_apache6thrift8protocol16TProtocolFactory11getProtocolENSt3__210shared_ptrINS0_9transport10TTransportEEES7_
__ZN13duckdb_apache6thrift8protocol16TProtocolFactoryD0Ev
__ZN13duckdb_apache6thrift8protocol16TProtocolFactoryD1Ev
__ZN13duckdb_apache6thrift8protocol16TProtocolFactoryD2Ev
__ZN13duckdb_apache6thrift8protocol16TVirtualProtocolINS1_17TCompactProtocolTIN6duckdb11MyTransportEEENS1_17TProtocolDefaultsEE12readI16_virtERs
__ZN13duckdb_apache6thrift8protocol16TVirtualProtocolINS1_17TCompactProtocolTIN6duckdb11MyTransportEEENS1_17TProtocolDefaultsEE12readI32_virtERi
__ZN13duckdb_apache6thrift8protocol16TVirtualProtocolINS1_17TCompactProtocolTIN6duckdb11MyTransportEEENS1_17TProtocolDefaultsEE12readI64_virtERx
__ZN13duckdb_apache6thrift8protocol16TVirtualProtocolINS1_17TCompactProtocolTIN6duckdb11MyTransportEEENS1_17TProtocolDefaultsEE13readBool_virtENSt3__215__bit_referenceINS9_6vectorIbNS9_9allocatorIbEEEELb1EEE
__ZN13duckdb_apache6thrift8protocol16TVirtualProtocolINS1_17TCompactProtocolTIN6duckdb11MyTransportEEENS1_17TProtocolDefaultsEE13readBool_virtERb
__ZN13duckdb_apache6thrift8protocol16TVirtualProtocolINS1_17TCompactProtocolTIN6duckdb11MyTransportEEENS1_17TProtocolDefaultsEE13readByte_virtERa
__ZN13duckdb_apache6thrift8protocol16TVirtualProtocolINS1_17TCompactProtocolTIN6duckdb11MyTransportEEENS1_17TProtocolDefaultsEE13writeI16_virtEs
__ZN13duckdb_apache6thrift8protocol16TVirtualProtocolINS1_17TCompactProtocolTIN6duckdb11MyTransportEEENS1_17TProtocolDefaultsEE13writeI32_virtEi
__ZN13duckdb_apache6thrift8protocol16TVirtualProtocolINS1_17TCompactProtocolTIN6duckdb11MyTransportEEENS1_17TProtocolDefaultsEE13writeI64_virtEx
__ZN13duckdb_apache6thrift8protocol16TVirtualProtocolINS1_17TCompactProtocolTIN6duckdb11MyTransportEEENS1_17TProtocolDefaultsEE14writeBool_virtEb
__ZN13duckdb_apache6thrift8protocol16TVirtualProtocolINS1_17TCompactProtocolTIN6duckdb11MyTransportEEENS1_17TProtocolDefaultsEE14writeByte_virtEa
__ZN13duckdb_apache6thrift8protocol16TVirtualProtocolINS1_17TCompactProtocolTIN6duckdb11MyTransportEEENS1_17TProtocolDefaultsEE15readBinary_virtERNSt3__212basic_stringIcNS9_11char_traitsIcEENS9_9allocatorIcEEEE
__ZN13duckdb_apache6thrift8protocol16TVirtualProtocolINS1_17TCompactProtocolTIN6duckdb11MyTransportEEENS1_17TProtocolDefaultsEE15readDouble_virtERd
__ZN13duckdb_apache6thrift8protocol16TVirtualProtocolINS1_17TCompactProtocolTIN6duckdb11MyTransportEEENS1_17TProtocolDefaultsEE15readMapEnd_virtEv
__ZN13duckdb_apache6thrift8protocol16TVirtualProtocolINS1_17TCompactProtocolTIN6duckdb11MyTransportEEENS1_17TProtocolDefaultsEE15readSetEnd_virtEv
__ZN13duckdb_apache6thrift8protocol16TVirtualProtocolINS1_17TCompactProtocolTIN6duckdb11MyTransportEEENS1_17TProtocolDefaultsEE15readString_virtERNSt3__212basic_stringIcNS9_11char_traitsIcEENS9_9allocatorIcEEEE
__ZN13duckdb_apache6thrift8protocol16TVirtualProtocolINS1_17TCompactProtocolTIN6duckdb11MyTransportEEENS1_17TProtocolDefaultsEE16readListEnd_virtEv
__ZN13duckdb_apache6thrift8protocol16TVirtualProtocolINS1_17TCompactProtocolTIN6duckdb11MyTransportEEENS1_17TProtocolDefaultsEE16writeBinary_virtERKNSt3__212basic_stringIcNS9_11char_traitsIcEENS9_9allocatorIcEEEE
__ZN13duckdb_apache6thrift8protocol16TVirtualProtocolINS1_17TCompactProtocolTIN6duckdb11MyTransportEEENS1_17TProtocolDefaultsEE16writeDouble_virtEd
__ZN13duckdb_apache6thrift8protocol16TVirtualProtocolINS1_17TCompactProtocolTIN6duckdb11MyTransportEEENS1_17TProtocolDefaultsEE16writeMapEnd_virtEv
__ZN13duckdb_apache6thrift8protocol16TVirtualProtocolINS1_17TCompactProtocolTIN6duckdb11MyTransportEEENS1_17TProtocolDefaultsEE16writeSetEnd_virtEv
__ZN13duckdb_apache6thrift8protocol16TVirtualProtocolINS1_17TCompactProtocolTIN6duckdb11MyTransportEEENS1_17TProtocolDefaultsEE16writeString_virtERKNSt3__212basic_stringIcNS9_11char_traitsIcEENS9_9allocatorIcEEEE
__ZN13duckdb_apache6thrift8protocol16TVirtualProtocolINS1_17TCompactProtocolTIN6duckdb11MyTransportEEENS1_17TProtocolDefaultsEE17readFieldEnd_virtEv
__ZN13duckdb_apache6thrift8protocol16TVirtualProtocolINS1_17TCompactProtocolTIN6duckdb11MyTransportEEENS1_17TProtocolDefaultsEE17readMapBegin_virtERNS1_5TTypeESA_Rj
__ZN13duckdb_apache6thrift8protocol16TVirtualProtocolINS1_17TCompactProtocolTIN6duckdb11MyTransportEEENS1_17TProtocolDefaultsEE17readSetBegin_virtERNS1_5TTypeERj
__ZN13duckdb_apache6thrift8protocol16TVirtualProtocolINS1_17TCompactProtocolTIN6duckdb11MyTransportEEENS1_17TProtocolDefaultsEE17writeListEnd_virtEv
__ZN13duckdb_apache6thrift8protocol16TVirtualProtocolINS1_17TCompactProtocolTIN6duckdb11MyTransportEEENS1_17TProtocolDefaultsEE18readListBegin_virtERNS1_5TTypeERj
__ZN13duckdb_apache6thrift8protocol16TVirtualProtocolINS1_17TCompactProtocolTIN6duckdb11MyTransportEEENS1_17TProtocolDefaultsEE18readStructEnd_virtEv
__ZN13duckdb_apache6thrift8protocol16TVirtualProtocolINS1_17TCompactProtocolTIN6duckdb11MyTransportEEENS1_17TProtocolDefaultsEE18writeFieldEnd_virtEv
__ZN13duckdb_apache6thrift8protocol16TVirtualProtocolINS1_17TCompactProtocolTIN6duckdb11MyTransportEEENS1_17TProtocolDefaultsEE18writeMapBegin_virtENS1_5TTypeES9_j
__ZN13duckdb_apache6thrift8protocol16TVirtualProtocolINS1_17TCompactProtocolTIN6duckdb11MyTransportEEENS1_17TProtocolDefaultsEE18writeSetBegin_virtENS1_5TTypeEj
__ZN13duckdb_apache6thrift8protocol16TVirtualProtocolINS1_17TCompactProtocolTIN6duckdb11MyTransportEEENS1_17TProtocolDefaultsEE19readFieldBegin_virtERNSt3__212basic_stringIcNS9_11char_traitsIcEENS9_9allocatorIcEEEERNS1_5TTypeERs
__ZN13duckdb_apache6thrift8protocol16TVirtualProtocolINS1_17TCompactProtocolTIN6duckdb11MyTransportEEENS1_17TProtocolDefaultsEE19readMessageEnd_virtEv
__ZN13duckdb_apache6thrift8protocol16TVirtualProtocolINS1_17TCompactProtocolTIN6duckdb11MyTransportEEENS1_17TProtocolDefaultsEE19writeFieldStop_virtEv
__ZN13duckdb_apache6thrift8protocol16TVirtualProtocolINS1_17TCompactProtocolTIN6duckdb11MyTransportEEENS1_17TProtocolDefaultsEE19writeListBegin_virtENS1_5TTypeEj
__ZN13duckdb_apache6thrift8protocol16TVirtualProtocolINS1_17TCompactProtocolTIN6duckdb11MyTransportEEENS1_17TProtocolDefaultsEE19writeStructEnd_virtEv
__ZN13duckdb_apache6thrift8protocol16TVirtualProtocolINS1_17TCompactProtocolTIN6duckdb11MyTransportEEENS1_17TProtocolDefaultsEE20readStructBegin_virtERNSt3__212basic_stringIcNS9_11char_traitsIcEENS9_9allocatorIcEEEE
__ZN13duckdb_apache6thrift8protocol16TVirtualProtocolINS1_17TCompactProtocolTIN6duckdb11MyTransportEEENS1_17TProtocolDefaultsEE20writeFieldBegin_virtEPKcNS1_5TTypeEs
__ZN13duckdb_apache6thrift8protocol16TVirtualProtocolINS1_17TCompactProtocolTIN6duckdb11MyTransportEEENS1_17TProtocolDefaultsEE20writeMessageEnd_virtEv
__ZN13duckdb_apache6thrift8protocol16TVirtualProtocolINS1_17TCompactProtocolTIN6duckdb11MyTransportEEENS1_17TProtocolDefaultsEE21readMessageBegin_virtERNSt3__212basic_stringIcNS9_11char_traitsIcEENS9_9allocatorIcEEEERNS1_12TMessageTypeERi
__ZN13duckdb_apache6thrift8protocol16TVirtualProtocolINS1_17TCompactProtocolTIN6duckdb11MyTransportEEENS1_17TProtocolDefaultsEE21writeStructBegin_virtEPKc
__ZN13duckdb_apache6thrift8protocol16TVirtualProtocolINS1_17TCompactProtocolTIN6duckdb11MyTransportEEENS1_17TProtocolDefaultsEE22writeMessageBegin_virtERKNSt3__212basic_stringIcNS9_11char_traitsIcEENS9_9allocatorIcEEEENS1_12TMessageTypeEi
__ZN13duckdb_apache6thrift8protocol16TVirtualProtocolINS1_17TCompactProtocolTIN6duckdb11MyTransportEEENS1_17TProtocolDefaultsEE9skip_virtENS1_5TTypeE
__ZN13duckdb_apache6thrift8protocol16TVirtualProtocolINS1_17TCompactProtocolTIN6duckdb11MyTransportEEENS1_17TProtocolDefaultsEEC2ENSt3__210shared_ptrINS0_9transport10TTransportEEE
__ZN13duckdb_apache6thrift8protocol16TVirtualProtocolINS1_17TCompactProtocolTIN6duckdb11MyTransportEEENS1_17TProtocolDefaultsEED0Ev
__ZN13duckdb_apache6thrift8protocol16TVirtualProtocolINS1_17TCompactProtocolTIN6duckdb19ThriftFileTransportEEENS1_17TProtocolDefaultsEE12readI16_virtERs
__ZN13duckdb_apache6thrift8protocol16TVirtualProtocolINS1_17TCompactProtocolTIN6duckdb19ThriftFileTransportEEENS1_17TProtocolDefaultsEE12readI32_virtERi
__ZN13duckdb_apache6thrift8protocol16TVirtualProtocolINS1_17TCompactProtocolTIN6duckdb19ThriftFileTransportEEENS1_17TProtocolDefaultsEE12readI64_virtERx
__ZN13duckdb_apache6thrift8protocol16TVirtualProtocolINS1_17TCompactProtocolTIN6duckdb19ThriftFileTransportEEENS1_17TProtocolDefaultsEE13readBool_virtENSt3__215__bit_referenceINS9_6vectorIbNS9_9allocatorIbEEEELb1EEE
__ZN13duckdb_apache6thrift8protocol16TVirtualProtocolINS1_17TCompactProtocolTIN6duckdb19ThriftFileTransportEEENS1_17TProtocolDefaultsEE13readBool_virtERb
__ZN13duckdb_apache6thrift8protocol16TVirtualProtocolINS1_17TCompactProtocolTIN6duckdb19ThriftFileTransportEEENS1_17TProtocolDefaultsEE13readByte_virtERa
__ZN13duckdb_apache6thrift8protocol16TVirtualProtocolINS1_17TCompactProtocolTIN6duckdb19ThriftFileTransportEEENS1_17TProtocolDefaultsEE13writeI16_virtEs
__ZN13duckdb_apache6thrift8protocol16TVirtualProtocolINS1_17TCompactProtocolTIN6duckdb19ThriftFileTransportEEENS1_17TProtocolDefaultsEE13writeI32_virtEi
__ZN13duckdb_apache6thrift8protocol16TVirtualProtocolINS1_17TCompactProtocolTIN6duckdb19ThriftFileTransportEEENS1_17TProtocolDefaultsEE13writeI64_virtEx
__ZN13duckdb_apache6thrift8protocol16TVirtualProtocolINS1_17TCompactProtocolTIN6duckdb19ThriftFileTransportEEENS1_17TProtocolDefaultsEE14writeBool_virtEb
__ZN13duckdb_apache6thrift8protocol16TVirtualProtocolINS1_17TCompactProtocolTIN6duckdb19ThriftFileTransportEEENS1_17TProtocolDefaultsEE14writeByte_virtEa
__ZN13duckdb_apache6thrift8protocol16TVirtualProtocolINS1_17TCompactProtocolTIN6duckdb19ThriftFileTransportEEENS1_17TProtocolDefaultsEE15readBinary_virtERNSt3__212basic_stringIcNS9_11char_traitsIcEENS9_9allocatorIcEEEE
__ZN13duckdb_apache6thrift8protocol16TVirtualProtocolINS1_17TCompactProtocolTIN6duckdb19ThriftFileTransportEEENS1_17TProtocolDefaultsEE15readDouble_virtERd
__ZN13duckdb_apache6thrift8protocol16TVirtualProtocolINS1_17TCompactProtocolTIN6duckdb19ThriftFileTransportEEENS1_17TProtocolDefaultsEE15readMapEnd_virtEv
__ZN13duckdb_apache6thrift8protocol16TVirtualProtocolINS1_17TCompactProtocolTIN6duckdb19ThriftFileTransportEEENS1_17TProtocolDefaultsEE15readSetEnd_virtEv
__ZN13duckdb_apache6thrift8protocol16TVirtualProtocolINS1_17TCompactProtocolTIN6duckdb19ThriftFileTransportEEENS1_17TProtocolDefaultsEE15readString_virtERNSt3__212basic_stringIcNS9_11char_traitsIcEENS9_9allocatorIcEEEE
__ZN13duckdb_apache6thrift8protocol16TVirtualProtocolINS1_17TCompactProtocolTIN6duckdb19ThriftFileTransportEEENS1_17TProtocolDefaultsEE16readListEnd_virtEv
__ZN13duckdb_apache6thrift8protocol16TVirtualProtocolINS1_17TCompactProtocolTIN6duckdb19ThriftFileTransportEEENS1_17TProtocolDefaultsEE16writeBinary_virtERKNSt3__212basic_stringIcNS9_11char_traitsIcEENS9_9allocatorIcEEEE
__ZN13duckdb_apache6thrift8protocol16TVirtualProtocolINS1_17TCompactProtocolTIN6duckdb19ThriftFileTransportEEENS1_17TProtocolDefaultsEE16writeDouble_virtEd
__ZN13duckdb_apache6thrift8protocol16TVirtualProtocolINS1_17TCompactProtocolTIN6duckdb19ThriftFileTransportEEENS1_17TProtocolDefaultsEE16writeMapEnd_virtEv
__ZN13duckdb_apache6thrift8protocol16TVirtualProtocolINS1_17TCompactProtocolTIN6duckdb19ThriftFileTransportEEENS1_17TProtocolDefaultsEE16writeSetEnd_virtEv
__ZN13duckdb_apache6thrift8protocol16TVirtualProtocolINS1_17TCompactProtocolTIN6duckdb19ThriftFileTransportEEENS1_17TProtocolDefaultsEE16writeString_virtERKNSt3__212basic_stringIcNS9_11char_traitsIcEENS9_9allocatorIcEEEE
__ZN13duckdb_apache6thrift8protocol16TVirtualProtocolINS1_17TCompactProtocolTIN6duckdb19ThriftFileTransportEEENS1_17TProtocolDefaultsEE17readFieldEnd_virtEv
__ZN13duckdb_apache6thrift8protocol16TVirtualProtocolINS1_17TCompactProtocolTIN6duckdb19ThriftFileTransportEEENS1_17TProtocolDefaultsEE17readMapBegin_virtERNS1_5TTypeESA_Rj
__ZN13duckdb_apache6thrift8protocol16TVirtualProtocolINS1_17TCompactProtocolTIN6duckdb19ThriftFileTransportEEENS1_17TProtocolDefaultsEE17readSetBegin_virtERNS1_5TTypeERj
__ZN13duckdb_apache6thrift8protocol16TVirtualProtocolINS1_17TCompactProtocolTIN6duckdb19ThriftFileTransportEEENS1_17TProtocolDefaultsEE17writeListEnd_virtEv
__ZN13duckdb_apache6thrift8protocol16TVirtualProtocolINS1_17TCompactProtocolTIN6duckdb19ThriftFileTransportEEENS1_17TProtocolDefaultsEE18readListBegin_virtERNS1_5TTypeERj
__ZN13duckdb_apache6thrift8protocol16TVirtualProtocolINS1_17TCompactProtocolTIN6duckdb19ThriftFileTransportEEENS1_17TProtocolDefaultsEE18readStructEnd_virtEv
__ZN13duckdb_apache6thrift8protocol16TVirtualProtocolINS1_17TCompactProtocolTIN6duckdb19ThriftFileTransportEEENS1_17TProtocolDefaultsEE18writeFieldEnd_virtEv
__ZN13duckdb_apache6thrift8protocol16TVirtualProtocolINS1_17TCompactProtocolTIN6duckdb19ThriftFileTransportEEENS1_17TProtocolDefaultsEE18writeMapBegin_virtENS1_5TTypeES9_j
__ZN13duckdb_apache6thrift8protocol16TVirtualProtocolINS1_17TCompactProtocolTIN6duckdb19ThriftFileTransportEEENS1_17TProtocolDefaultsEE18writeSetBegin_virtENS1_5TTypeEj
__ZN13duckdb_apache6thrift8protocol16TVirtualProtocolINS1_17TCompactProtocolTIN6duckdb19ThriftFileTransportEEENS1_17TProtocolDefaultsEE19readFieldBegin_virtERNSt3__212basic_stringIcNS9_11char_traitsIcEENS9_9allocatorIcEEEERNS1_5TTypeERs
__ZN13duckdb_apache6thrift8protocol16TVirtualProtocolINS1_17TCompactProtocolTIN6duckdb19ThriftFileTransportEEENS1_17TProtocolDefaultsEE19readMessageEnd_virtEv
__ZN13duckdb_apache6thrift8protocol16TVirtualProtocolINS1_17TCompactProtocolTIN6duckdb19ThriftFileTransportEEENS1_17TProtocolDefaultsEE19writeFieldStop_virtEv
__ZN13duckdb_apache6thrift8protocol16TVirtualProtocolINS1_17TCompactProtocolTIN6duckdb19ThriftFileTransportEEENS1_17TProtocolDefaultsEE19writeListBegin_virtENS1_5TTypeEj
__ZN13duckdb_apache6thrift8protocol16TVirtualProtocolINS1_17TCompactProtocolTIN6duckdb19ThriftFileTransportEEENS1_17TProtocolDefaultsEE19writeStructEnd_virtEv
__ZN13duckdb_apache6thrift8protocol16TVirtualProtocolINS1_17TCompactProtocolTIN6duckdb19ThriftFileTransportEEENS1_17TProtocolDefaultsEE20readStructBegin_virtERNSt3__212basic_stringIcNS9_11char_traitsIcEENS9_9allocatorIcEEEE
__ZN13duckdb_apache6thrift8protocol16TVirtualProtocolINS1_17TCompactProtocolTIN6duckdb19ThriftFileTransportEEENS1_17TProtocolDefaultsEE20writeFieldBegin_virtEPKcNS1_5TTypeEs
__ZN13duckdb_apache6thrift8protocol16TVirtualProtocolINS1_17TCompactProtocolTIN6duckdb19ThriftFileTransportEEENS1_17TProtocolDefaultsEE20writeMessageEnd_virtEv
__ZN13duckdb_apache6thrift8protocol16TVirtualProtocolINS1_17TCompactProtocolTIN6duckdb19ThriftFileTransportEEENS1_17TProtocolDefaultsEE21readMessageBegin_virtERNSt3__212basic_stringIcNS9_11char_traitsIcEENS9_9allocatorIcEEEERNS1_12TMessageTypeERi
__ZN13duckdb_apache6thrift8protocol16TVirtualProtocolINS1_17TCompactProtocolTIN6duckdb19ThriftFileTransportEEENS1_17TProtocolDefaultsEE21writeStructBegin_virtEPKc
__ZN13duckdb_apache6thrift8protocol16TVirtualProtocolINS1_17TCompactProtocolTIN6duckdb19ThriftFileTransportEEENS1_17TProtocolDefaultsEE22writeMessageBegin_virtERKNSt3__212basic_stringIcNS9_11char_traitsIcEENS9_9allocatorIcEEEENS1_12TMessageTypeEi
__ZN13duckdb_apache6thrift8protocol16TVirtualProtocolINS1_17TCompactProtocolTIN6duckdb19ThriftFileTransportEEENS1_17TProtocolDefaultsEE9skip_virtENS1_5TTypeE
__ZN13duckdb_apache6thrift8protocol16TVirtualProtocolINS1_17TCompactProtocolTIN6duckdb19ThriftFileTransportEEENS1_17TProtocolDefaultsEEC2ENSt3__210shared_ptrINS0_9transport10TTransportEEE
__ZN13duckdb_apache6thrift8protocol16TVirtualProtocolINS1_17TCompactProtocolTIN6duckdb19ThriftFileTransportEEENS1_17TProtocolDefaultsEED0Ev
__ZN13duckdb_apache6thrift8protocol16TVirtualProtocolINS1_17TCompactProtocolTINS0_9transport10TTransportEEENS1_17TProtocolDefaultsEE12readI16_virtERs
__ZN13duckdb_apache6thrift8protocol16TVirtualProtocolINS1_17TCompactProtocolTINS0_9transport10TTransportEEENS1_17TProtocolDefaultsEE12readI32_virtERi
__ZN13duckdb_apache6thrift8protocol16TVirtualProtocolINS1_17TCompactProtocolTINS0_9transport10TTransportEEENS1_17TProtocolDefaultsEE12readI64_virtERx
__ZN13duckdb_apache6thrift8protocol16TVirtualProtocolINS1_17TCompactProtocolTINS0_9transport10TTransportEEENS1_17TProtocolDefaultsEE13readBool_virtENSt3__215__bit_referenceINS9_6vectorIbNS9_9allocatorIbEEEELb1EEE
__ZN13duckdb_apache6thrift8protocol16TVirtualProtocolINS1_17TCompactProtocolTINS0_9transport10TTransportEEENS1_17TProtocolDefaultsEE13readBool_virtERb
__ZN13duckdb_apache6thrift8protocol16TVirtualProtocolINS1_17TCompactProtocolTINS0_9transport10TTransportEEENS1_17TProtocolDefaultsEE13readByte_virtERa
__ZN13duckdb_apache6thrift8protocol16TVirtualProtocolINS1_17TCompactProtocolTINS0_9transport10TTransportEEENS1_17TProtocolDefaultsEE13writeI16_virtEs
__ZN13duckdb_apache6thrift8protocol16TVirtualProtocolINS1_17TCompactProtocolTINS0_9transport10TTransportEEENS1_17TProtocolDefaultsEE13writeI32_virtEi
__ZN13duckdb_apache6thrift8protocol16TVirtualProtocolINS1_17TCompactProtocolTINS0_9transport10TTransportEEENS1_17TProtocolDefaultsEE13writeI64_virtEx
__ZN13duckdb_apache6thrift8protocol16TVirtualProtocolINS1_17TCompactProtocolTINS0_9transport10TTransportEEENS1_17TProtocolDefaultsEE14writeBool_virtEb
__ZN13duckdb_apache6thrift8protocol16TVirtualProtocolINS1_17TCompactProtocolTINS0_9transport10TTransportEEENS1_17TProtocolDefaultsEE14writeByte_virtEa
__ZN13duckdb_apache6thrift8protocol16TVirtualProtocolINS1_17TCompactProtocolTINS0_9transport10TTransportEEENS1_17TProtocolDefaultsEE15readBinary_virtERNSt3__212basic_stringIcNS9_11char_traitsIcEENS9_9allocatorIcEEEE
__ZN13duckdb_apache6thrift8protocol16TVirtualProtocolINS1_17TCompactProtocolTINS0_9transport10TTransportEEENS1_17TProtocolDefaultsEE15readDouble_virtERd
__ZN13duckdb_apache6thrift8protocol16TVirtualProtocolINS1_17TCompactProtocolTINS0_9transport10TTransportEEENS1_17TProtocolDefaultsEE15readMapEnd_virtEv
__ZN13duckdb_apache6thrift8protocol16TVirtualProtocolINS1_17TCompactProtocolTINS0_9transport10TTransportEEENS1_17TProtocolDefaultsEE15readSetEnd_virtEv
__ZN13duckdb_apache6thrift8protocol16TVirtualProtocolINS1_17TCompactProtocolTINS0_9transport10TTransportEEENS1_17TProtocolDefaultsEE15readString_virtERNSt3__212basic_stringIcNS9_11char_traitsIcEENS9_9allocatorIcEEEE
__ZN13duckdb_apache6thrift8protocol16TVirtualProtocolINS1_17TCompactProtocolTINS0_9transport10TTransportEEENS1_17TProtocolDefaultsEE16readListEnd_virtEv
__ZN13duckdb_apache6thrift8protocol16TVirtualProtocolINS1_17TCompactProtocolTINS0_9transport10TTransportEEENS1_17TProtocolDefaultsEE16writeBinary_virtERKNSt3__212basic_stringIcNS9_11char_traitsIcEENS9_9allocatorIcEEEE
__ZN13duckdb_apache6thrift8protocol16TVirtualProtocolINS1_17TCompactProtocolTINS0_9transport10TTransportEEENS1_17TProtocolDefaultsEE16writeDouble_virtEd
__ZN13duckdb_apache6thrift8protocol16TVirtualProtocolINS1_17TCompactProtocolTINS0_9transport10TTransportEEENS1_17TProtocolDefaultsEE16writeMapEnd_virtEv
__ZN13duckdb_apache6thrift8protocol16TVirtualProtocolINS1_17TCompactProtocolTINS0_9transport10TTransportEEENS1_17TProtocolDefaultsEE16writeSetEnd_virtEv
__ZN13duckdb_apache6thrift8protocol16TVirtualProtocolINS1_17TCompactProtocolTINS0_9transport10TTransportEEENS1_17TProtocolDefaultsEE16writeString_virtERKNSt3__212basic_stringIcNS9_11char_traitsIcEENS9_9allocatorIcEEEE
__ZN13duckdb_apache6thrift8protocol16TVirtualProtocolINS1_17TCompactProtocolTINS0_9transport10TTransportEEENS1_17TProtocolDefaultsEE17readFieldEnd_virtEv
__ZN13duckdb_apache6thrift8protocol16TVirtualProtocolINS1_17TCompactProtocolTINS0_9transport10TTransportEEENS1_17TProtocolDefaultsEE17readMapBegin_virtERNS1_5TTypeESA_Rj
__ZN13duckdb_apache6thrift8protocol16TVirtualProtocolINS1_17TCompactProtocolTINS0_9transport10TTransportEEENS1_17TProtocolDefaultsEE17readSetBegin_virtERNS1_5TTypeERj
__ZN13duckdb_apache6thrift8protocol16TVirtualProtocolINS1_17TCompactProtocolTINS0_9transport10TTransportEEENS1_17TProtocolDefaultsEE17writeListEnd_virtEv
__ZN13duckdb_apache6thrift8protocol16TVirtualProtocolINS1_17TCompactProtocolTINS0_9transport10TTransportEEENS1_17TProtocolDefaultsEE18readListBegin_virtERNS1_5TTypeERj
__ZN13duckdb_apache6thrift8protocol16TVirtualProtocolINS1_17TCompactProtocolTINS0_9transport10TTransportEEENS1_17TProtocolDefaultsEE18readStructEnd_virtEv
__ZN13duckdb_apache6thrift8protocol16TVirtualProtocolINS1_17TCompactProtocolTINS0_9transport10TTransportEEENS1_17TProtocolDefaultsEE18writeFieldEnd_virtEv
__ZN13duckdb_apache6thrift8protocol16TVirtualProtocolINS1_17TCompactProtocolTINS0_9transport10TTransportEEENS1_17TProtocolDefaultsEE18writeMapBegin_virtENS1_5TTypeES9_j
__ZN13duckdb_apache6thrift8protocol16TVirtualProtocolINS1_17TCompactProtocolTINS0_9transport10TTransportEEENS1_17TProtocolDefaultsEE18writeSetBegin_virtENS1_5TTypeEj
__ZN13duckdb_apache6thrift8protocol16TVirtualProtocolINS1_17TCompactProtocolTINS0_9transport10TTransportEEENS1_17TProtocolDefaultsEE19readFieldBegin_virtERNSt3__212basic_stringIcNS9_11char_traitsIcEENS9_9allocatorIcEEEERNS1_5TTypeERs
__ZN13duckdb_apache6thrift8protocol16TVirtualProtocolINS1_17TCompactProtocolTINS0_9transport10TTransportEEENS1_17TProtocolDefaultsEE19readMessageEnd_virtEv
__ZN13duckdb_apache6thrift8protocol16TVirtualProtocolINS1_17TCompactProtocolTINS0_9transport10TTransportEEENS1_17TProtocolDefaultsEE19writeFieldStop_virtEv
__ZN13duckdb_apache6thrift8protocol16TVirtualProtocolINS1_17TCompactProtocolTINS0_9transport10TTransportEEENS1_17TProtocolDefaultsEE19writeListBegin_virtENS1_5TTypeEj
__ZN13duckdb_apache6thrift8protocol16TVirtualProtocolINS1_17TCompactProtocolTINS0_9transport10TTransportEEENS1_17TProtocolDefaultsEE19writeStructEnd_virtEv
__ZN13duckdb_apache6thrift8protocol16TVirtualProtocolINS1_17TCompactProtocolTINS0_9transport10TTransportEEENS1_17TProtocolDefaultsEE20readStructBegin_virtERNSt3__212basic_stringIcNS9_11char_traitsIcEENS9_9allocatorIcEEEE
__ZN13duckdb_apache6thrift8protocol16TVirtualProtocolINS1_17TCompactProtocolTINS0_9transport10TTransportEEENS1_17TProtocolDefaultsEE20writeFieldBegin_virtEPKcNS1_5TTypeEs
__ZN13duckdb_apache6thrift8protocol16TVirtualProtocolINS1_17TCompactProtocolTINS0_9transport10TTransportEEENS1_17TProtocolDefaultsEE20writeMessageEnd_virtEv
__ZN13duckdb_apache6thrift8protocol16TVirtualProtocolINS1_17TCompactProtocolTINS0_9transport10TTransportEEENS1_17TProtocolDefaultsEE21readMessageBegin_virtERNSt3__212basic_stringIcNS9_11char_traitsIcEENS9_9allocatorIcEEEERNS1_12TMessageTypeERi
__ZN13duckdb_apache6thrift8protocol16TVirtualProtocolINS1_17TCompactProtocolTINS0_9transport10TTransportEEENS1_17TProtocolDefaultsEE21writeStructBegin_virtEPKc
__ZN13duckdb_apache6thrift8protocol16TVirtualProtocolINS1_17TCompactProtocolTINS0_9transport10TTransportEEENS1_17TProtocolDefaultsEE22writeMessageBegin_virtERKNSt3__212basic_stringIcNS9_11char_traitsIcEENS9_9allocatorIcEEEENS1_12TMessageTypeEi
__ZN13duckdb_apache6thrift8protocol16TVirtualProtocolINS1_17TCompactProtocolTINS0_9transport10TTransportEEENS1_17TProtocolDefaultsEE9skip_virtENS1_5TTypeE
__ZN13duckdb_apache6thrift8protocol16TVirtualProtocolINS1_17TCompactProtocolTINS0_9transport10TTransportEEENS1_17TProtocolDefaultsEEC2ENSt3__210shared_ptrIS5_EE
__ZN13duckdb_apache6thrift8protocol16TVirtualProtocolINS1_17TCompactProtocolTINS0_9transport10TTransportEEENS1_17TProtocolDefaultsEED0Ev
__ZN13duckdb_apache6thrift8protocol17TCompactProtocolTIN6duckdb11MyTransportEE10readBinaryERNSt3__212basic_stringIcNS6_11char_traitsIcEENS6_9allocatorIcEEEE
__ZN13duckdb_apache6thrift8protocol17TCompactProtocolTIN6duckdb11MyTransportEE11writeBinaryERKNSt3__212basic_stringIcNS6_11char_traitsIcEENS6_9allocatorIcEEEE
__ZN13duckdb_apache6thrift8protocol17TCompactProtocolTIN6duckdb11MyTransportEE12readMapBeginERNS1_5TTypeES7_Rj
__ZN13duckdb_apache6thrift8protocol17TCompactProtocolTIN6duckdb11MyTransportEE12readVarint64ERx
__ZN13duckdb_apache6thrift8protocol17TCompactProtocolTIN6duckdb11MyTransportEE13readListBeginERNS1_5TTypeERj
__ZN13duckdb_apache6thrift8protocol17TCompactProtocolTIN6duckdb11MyTransportEE13writeMapBeginENS1_5TTypeES6_j
__ZN13duckdb_apache6thrift8protocol17TCompactProtocolTIN6duckdb11MyTransportEE15writeMessageEndEv
__ZN13duckdb_apache6thrift8protocol17TCompactProtocolTIN6duckdb11MyTransportEE16readMessageBeginERNSt3__212basic_stringIcNS6_11char_traitsIcEENS6_9allocatorIcEEEERNS1_12TMessageTypeERi
__ZN13duckdb_apache6thrift8protocol17TCompactProtocolTIN6duckdb11MyTransportEE17writeMessageBeginERKNSt3__212basic_stringIcNS6_11char_traitsIcEENS6_9allocatorIcEEEENS1_12TMessageTypeEi
__ZN13duckdb_apache6thrift8protocol17TCompactProtocolTIN6duckdb11MyTransportEE8getTTypeEa
__ZN13duckdb_apache6thrift8protocol17TCompactProtocolTIN6duckdb11MyTransportEE9writeBoolEb
__ZN13duckdb_apache6thrift8protocol17TCompactProtocolTIN6duckdb11MyTransportEED0Ev
__ZN13duckdb_apache6thrift8protocol17TCompactProtocolTIN6duckdb11MyTransportEED2Ev
__ZN13duckdb_apache6thrift8protocol17TCompactProtocolTIN6duckdb19ThriftFileTransportEE10readBinaryERNSt3__212basic_stringIcNS6_11char_traitsIcEENS6_9allocatorIcEEEE
__ZN13duckdb_apache6thrift8protocol17TCompactProtocolTIN6duckdb19ThriftFileTransportEE11writeBinaryERKNSt3__212basic_stringIcNS6_11char_traitsIcEENS6_9allocatorIcEEEE
__ZN13duckdb_apache6thrift8protocol17TCompactProtocolTIN6duckdb19ThriftFileTransportEE12readMapBeginERNS1_5TTypeES7_Rj
__ZN13duckdb_apache6thrift8protocol17TCompactProtocolTIN6duckdb19ThriftFileTransportEE12readVarint64ERx
__ZN13duckdb_apache6thrift8protocol17TCompactProtocolTIN6duckdb19ThriftFileTransportEE13readListBeginERNS1_5TTypeERj
__ZN13duckdb_apache6thrift8protocol17TCompactProtocolTIN6duckdb19ThriftFileTransportEE13writeMapBeginENS1_5TTypeES6_j
__ZN13duckdb_apache6thrift8protocol17TCompactProtocolTIN6duckdb19ThriftFileTransportEE15writeMessageEndEv
__ZN13duckdb_apache6thrift8protocol17TCompactProtocolTIN6duckdb19ThriftFileTransportEE16readMessageBeginERNSt3__212basic_stringIcNS6_11char_traitsIcEENS6_9allocatorIcEEEERNS1_12TMessageTypeERi
__ZN13duckdb_apache6thrift8protocol17TCompactProtocolTIN6duckdb19ThriftFileTransportEE17writeMessageBeginERKNSt3__212basic_stringIcNS6_11char_traitsIcEENS6_9allocatorIcEEEENS1_12TMessageTypeEi
__ZN13duckdb_apache6thrift8protocol17TCompactProtocolTIN6duckdb19ThriftFileTransportEE23writeFieldBeginInternalEPKcNS1_5TTypeEsa
__ZN13duckdb_apache6thrift8protocol17TCompactProtocolTIN6duckdb19ThriftFileTransportEE8getTTypeEa
__ZN13duckdb_apache6thrift8protocol17TCompactProtocolTIN6duckdb19ThriftFileTransportEED0Ev
__ZN13duckdb_apache6thrift8protocol17TCompactProtocolTIN6duckdb19ThriftFileTransportEED2Ev
__ZN13duckdb_apache6thrift8protocol17TCompactProtocolTINS0_9transport10TTransportEE10readBinaryERNSt3__212basic_stringIcNS6_11char_traitsIcEENS6_9allocatorIcEEEE
__ZN13duckdb_apache6thrift8protocol17TCompactProtocolTINS0_9transport10TTransportEE11writeBinaryERKNSt3__212basic_stringIcNS6_11char_traitsIcEENS6_9allocatorIcEEEE
__ZN13duckdb_apache6thrift8protocol17TCompactProtocolTINS0_9transport10TTransportEE12readMapBeginERNS1_5TTypeES7_Rj
__ZN13duckdb_apache6thrift8protocol17TCompactProtocolTINS0_9transport10TTransportEE12readVarint64ERx
__ZN13duckdb_apache6thrift8protocol17TCompactProtocolTINS0_9transport10TTransportEE13readListBeginERNS1_5TTypeERj
__ZN13duckdb_apache6thrift8protocol17TCompactProtocolTINS0_9transport10TTransportEE13writeMapBeginENS1_5TTypeES6_j
__ZN13duckdb_apache6thrift8protocol17TCompactProtocolTINS0_9transport10TTransportEE15writeMessageEndEv
__ZN13duckdb_apache6thrift8protocol17TCompactProtocolTINS0_9transport10TTransportEE16readMessageBeginERNSt3__212basic_stringIcNS6_11char_traitsIcEENS6_9allocatorIcEEEERNS1_12TMessageTypeERi
__ZN13duckdb_apache6thrift8protocol17TCompactProtocolTINS0_9transport10TTransportEE17writeMessageBeginERKNSt3__212basic_stringIcNS6_11char_traitsIcEENS6_9allocatorIcEEEENS1_12TMessageTypeEi
__ZN13duckdb_apache6thrift8protocol17TCompactProtocolTINS0_9transport10TTransportEE8getTTypeEa
__ZN13duckdb_apache6thrift8protocol17TCompactProtocolTINS0_9transport10TTransportEE9writeBoolEb
__ZN13duckdb_apache6thrift8protocol17TCompactProtocolTINS0_9transport10TTransportEED0Ev
__ZN13duckdb_apache6thrift8protocol17TCompactProtocolTINS0_9transport10TTransportEED2Ev
__ZN13duckdb_apache6thrift8protocol17TProtocolDefaultsD0Ev
__ZN13duckdb_apache6thrift8protocol18TProtocolExceptionC2ENS2_22TProtocolExceptionTypeERKNSt3__212basic_stringIcNS4_11char_traitsIcEENS4_9allocatorIcEEEE
__ZN13duckdb_apache6thrift8protocol18TProtocolExceptionD0Ev
__ZN13duckdb_apache6thrift8protocol24TCompactProtocolFactoryTIN6duckdb11MyTransportEE11getProtocolENSt3__210shared_ptrINS0_9transport10TTransportEEE
__ZN13duckdb_apache6thrift8protocol24TCompactProtocolFactoryTIN6duckdb11MyTransportEED0Ev
__ZN13duckdb_apache6thrift8protocol4skipINS1_17TCompactProtocolTIN6duckdb11MyTransportEEEEEjRT_NS1_5TTypeE
__ZN13duckdb_apache6thrift8protocol4skipINS1_17TCompactProtocolTIN6duckdb19ThriftFileTransportEEEEEjRT_NS1_5TTypeE
__ZN13duckdb_apache6thrift8protocol4skipINS1_17TCompactProtocolTINS0_9transport10TTransportEEEEEjRT_NS1_5TTypeE
__ZN13duckdb_apache6thrift8protocol4skipINS1_9TProtocolEEEjRT_NS1_5TTypeE
__ZN13duckdb_apache6thrift8protocol9TProtocol9skip_virtENS1_5TTypeE
__ZN13duckdb_apache6thrift8protocol9TProtocolD0Ev
__ZN13duckdb_apache6thrift8protocol9TProtocolD1Ev
__ZN13duckdb_apache6thrift8protocol9TProtocolD2Ev
__ZN13duckdb_apache6thrift9to_stringIN14duckdb_parquet6format10StatisticsEEENSt3__212basic_stringIcNS5_11char_traitsIcEENS5_9allocatorIcEEEERKT_
__ZN13duckdb_apache6thrift9to_stringIN14duckdb_parquet6format10StringTypeEEENSt3__212basic_stringIcNS5_11char_traitsIcEENS5_9allocatorIcEEEERKT_
__ZN13duckdb_apache6thrift9to_stringIN14duckdb_parquet6format11AesGcmCtrV1EEENSt3__212basic_stringIcNS5_11char_traitsIcEENS5_9allocatorIcEEEERKT_
__ZN13duckdb_apache6thrift9to_stringIN14duckdb_parquet6format11ColumnChunkEEENSt3__212basic_stringIcNS5_11char_traitsIcEENS5_9allocatorIcEEEERKN6duckdb6vectorIT_Lb1EEE
__ZN13duckdb_apache6thrift9to_stringIN14duckdb_parquet6format11ColumnChunkEEENSt3__212basic_stringIcNS5_11char_traitsIcEENS5_9allocatorIcEEEERKT_
__ZN13duckdb_apache6thrift9to_stringIN14duckdb_parquet6format11ColumnOrderEEENSt3__212basic_stringIcNS5_11char_traitsIcEENS5_9allocatorIcEEEERKN6duckdb6vectorIT_Lb1EEE
__ZN13duckdb_apache6thrift9to_stringIN14duckdb_parquet6format11ColumnOrderEEENSt3__212basic_stringIcNS5_11char_traitsIcEENS5_9allocatorIcEEEERKT_
__ZN13duckdb_apache6thrift9to_stringIN14duckdb_parquet6format11DecimalTypeEEENSt3__212basic_stringIcNS5_11char_traitsIcEENS5_9allocatorIcEEEERKT_
__ZN13duckdb_apache6thrift9to_stringIN14duckdb_parquet6format11LogicalTypeEEENSt3__212basic_stringIcNS5_11char_traitsIcEENS5_9allocatorIcEEEERKT_
__ZN13duckdb_apache6thrift9to_stringIN14duckdb_parquet6format11NanoSecondsEEENSt3__212basic_stringIcNS5_11char_traitsIcEENS5_9allocatorIcEEEERKT_
__ZN13duckdb_apache6thrift9to_stringIN14duckdb_parquet6format12MicroSecondsEEENSt3__212basic_stringIcNS5_11char_traitsIcEENS5_9allocatorIcEEEERKT_
__ZN13duckdb_apache6thrift9to_stringIN14duckdb_parquet6format12MilliSecondsEEENSt3__212basic_stringIcNS5_11char_traitsIcEENS5_9allocatorIcEEEERKT_
__ZN13duckdb_apache6thrift9to_stringIN14duckdb_parquet6format12PageLocationEEENSt3__212basic_stringIcNS5_11char_traitsIcEENS5_9allocatorIcEEEERKN6duckdb6vectorIT_Lb1EEE
__ZN13duckdb_apache6thrift9to_stringIN14duckdb_parquet6format12PageLocationEEENSt3__212basic_stringIcNS5_11char_traitsIcEENS5_9allocatorIcEEEERKT_
__ZN13duckdb_apache6thrift9to_stringIN14duckdb_parquet6format13BoundaryOrder4typeEEENSt3__212basic_stringIcNS6_11char_traitsIcEENS6_9allocatorIcEEEERKT_
__ZN13duckdb_apache6thrift9to_stringIN14duckdb_parquet6format13ConvertedType4typeEEENSt3__212basic_stringIcNS6_11char_traitsIcEENS6_9allocatorIcEEEERKT_
__ZN13duckdb_apache6thrift9to_stringIN14duckdb_parquet6format13SchemaElementEEENSt3__212basic_stringIcNS5_11char_traitsIcEENS5_9allocatorIcEEEERKN6duckdb6vectorIT_Lb1EEE
__ZN13duckdb_apache6thrift9to_stringIN14duckdb_parquet6format13SchemaElementEEENSt3__212basic_stringIcNS5_11char_traitsIcEENS5_9allocatorIcEEEERKT_
__ZN13duckdb_apache6thrift9to_stringIN14duckdb_parquet6format13SortingColumnEEENSt3__212basic_stringIcNS5_11char_traitsIcEENS5_9allocatorIcEEEERKN6duckdb6vectorIT_Lb1EEE
__ZN13duckdb_apache6thrift9to_stringIN14duckdb_parquet6format13SortingColumnEEENSt3__212basic_stringIcNS5_11char_traitsIcEENS5_9allocatorIcEEEERKT_
__ZN13duckdb_apache6thrift9to_stringIN14duckdb_parquet6format13TimestampTypeEEENSt3__212basic_stringIcNS5_11char_traitsIcEENS5_9allocatorIcEEEERKT_
__ZN13duckdb_apache6thrift9to_stringIN14duckdb_parquet6format14ColumnMetaDataEEENSt3__212basic_stringIcNS5_11char_traitsIcEENS5_9allocatorIcEEEERKT_
__ZN13duckdb_apache6thrift9to_stringIN14duckdb_parquet6format14DataPageHeaderEEENSt3__212basic_stringIcNS5_11char_traitsIcEENS5_9allocatorIcEEEERKT_
__ZN13duckdb_apache6thrift9to_stringIN14duckdb_parquet6format15IndexPageHeaderEEENSt3__212basic_stringIcNS5_11char_traitsIcEENS5_9allocatorIcEEEERKT_
__ZN13duckdb_apache6thrift9to_stringIN14duckdb_parquet6format16CompressionCodec4typeEEENSt3__212basic_stringIcNS6_11char_traitsIcEENS6_9allocatorIcEEEERKT_
__ZN13duckdb_apache6thrift9to_stringIN14duckdb_parquet6format16DataPageHeaderV2EEENSt3__212basic_stringIcNS5_11char_traitsIcEENS5_9allocatorIcEEEERKT_
__ZN13duckdb_apache6thrift9to_stringIN14duckdb_parquet6format16TypeDefinedOrderEEENSt3__212basic_stringIcNS5_11char_traitsIcEENS5_9allocatorIcEEEERKT_
__ZN13duckdb_apache6thrift9to_stringIN14duckdb_parquet6format17PageEncodingStatsEEENSt3__212basic_stringIcNS5_11char_traitsIcEENS5_9allocatorIcEEEERKN6duckdb6vectorIT_Lb1EEE
__ZN13duckdb_apache6thrift9to_stringIN14duckdb_parquet6format17PageEncodingStatsEEENSt3__212basic_stringIcNS5_11char_traitsIcEENS5_9allocatorIcEEEERKT_
__ZN13duckdb_apache6thrift9to_stringIN14duckdb_parquet6format19EncryptionAlgorithmEEENSt3__212basic_stringIcNS5_11char_traitsIcEENS5_9allocatorIcEEEERKT_
__ZN13duckdb_apache6thrift9to_stringIN14duckdb_parquet6format19FieldRepetitionType4typeEEENSt3__212basic_stringIcNS6_11char_traitsIcEENS6_9allocatorIcEEEERKT_
__ZN13duckdb_apache6thrift9to_stringIN14duckdb_parquet6format20ColumnCryptoMetaDataEEENSt3__212basic_stringIcNS5_11char_traitsIcEENS5_9allocatorIcEEEERKT_
__ZN13duckdb_apache6thrift9to_stringIN14duckdb_parquet6format20DictionaryPageHeaderEEENSt3__212basic_stringIcNS5_11char_traitsIcEENS5_9allocatorIcEEEERKT_
__ZN13duckdb_apache6thrift9to_stringIN14duckdb_parquet6format23EncryptionWithColumnKeyEEENSt3__212basic_stringIcNS5_11char_traitsIcEENS5_9allocatorIcEEEERKT_
__ZN13duckdb_apache6thrift9to_stringIN14duckdb_parquet6format23EncryptionWithFooterKeyEEENSt3__212basic_stringIcNS5_11char_traitsIcEENS5_9allocatorIcEEEERKT_
__ZN13duckdb_apache6thrift9to_stringIN14duckdb_parquet6format4Type4typeEEENSt3__212basic_stringIcNS6_11char_traitsIcEENS6_9allocatorIcEEEERKT_
__ZN13duckdb_apache6thrift9to_stringIN14duckdb_parquet6format7IntTypeEEENSt3__212basic_stringIcNS5_11char_traitsIcEENS5_9allocatorIcEEEERKT_
__ZN13duckdb_apache6thrift9to_stringIN14duckdb_parquet6format7MapTypeEEENSt3__212basic_stringIcNS5_11char_traitsIcEENS5_9allocatorIcEEEERKT_
__ZN13duckdb_apache6thrift9to_stringIN14duckdb_parquet6format8AesGcmV1EEENSt3__212basic_stringIcNS5_11char_traitsIcEENS5_9allocatorIcEEEERKT_
__ZN13duckdb_apache6thrift9to_stringIN14duckdb_parquet6format8BsonTypeEEENSt3__212basic_stringIcNS5_11char_traitsIcEENS5_9allocatorIcEEEERKT_
__ZN13duckdb_apache6thrift9to_stringIN14duckdb_parquet6format8DateTypeEEENSt3__212basic_stringIcNS5_11char_traitsIcEENS5_9allocatorIcEEEERKT_
__ZN13duckdb_apache6thrift9to_stringIN14duckdb_parquet6format8Encoding4typeEEENSt3__212basic_stringIcNS6_11char_traitsIcEENS6_9allocatorIcEEEERKN6duckdb6vectorIT_Lb1EEE
__ZN13duckdb_apache6thrift9to_stringIN14duckdb_parquet6format8Encoding4typeEEENSt3__212basic_stringIcNS6_11char_traitsIcEENS6_9allocatorIcEEEERKT_
__ZN13duckdb_apache6thrift9to_stringIN14duckdb_parquet6format8EnumTypeEEENSt3__212basic_stringIcNS5_11char_traitsIcEENS5_9allocatorIcEEEERKT_
__ZN13duckdb_apache6thrift9to_stringIN14duckdb_parquet6format8JsonTypeEEENSt3__212basic_stringIcNS5_11char_traitsIcEENS5_9allocatorIcEEEERKT_
__ZN13duckdb_apache6thrift9to_stringIN14duckdb_parquet6format8KeyValueEEENSt3__212basic_stringIcNS5_11char_traitsIcEENS5_9allocatorIcEEEERKN6duckdb6vectorIT_Lb1EEE
__ZN13duckdb_apache6thrift9to_stringIN14duckdb_parquet6format8KeyValueEEENSt3__212basic_stringIcNS5_11char_traitsIcEENS5_9allocatorIcEEEERKT_
__ZN13duckdb_apache6thrift9to_stringIN14duckdb_parquet6format8ListTypeEEENSt3__212basic_stringIcNS5_11char_traitsIcEENS5_9allocatorIcEEEERKT_
__ZN13duckdb_apache6thrift9to_stringIN14duckdb_parquet6format8NullTypeEEENSt3__212basic_stringIcNS5_11char_traitsIcEENS5_9allocatorIcEEEERKT_
__ZN13duckdb_apache6thrift9to_stringIN14duckdb_parquet6format8PageType4typeEEENSt3__212basic_stringIcNS6_11char_traitsIcEENS6_9allocatorIcEEEERKT_
__ZN13duckdb_apache6thrift9to_stringIN14duckdb_parquet6format8RowGroupEEENSt3__212basic_stringIcNS5_11char_traitsIcEENS5_9allocatorIcEEEERKN6duckdb6vectorIT_Lb1EEE
__ZN13duckdb_apache6thrift9to_stringIN14duckdb_parquet6format8RowGroupEEENSt3__212basic_stringIcNS5_11char_traitsIcEENS5_9allocatorIcEEEERKT_
__ZN13duckdb_apache6thrift9to_stringIN14duckdb_parquet6format8TimeTypeEEENSt3__212basic_stringIcNS5_11char_traitsIcEENS5_9allocatorIcEEEERKT_
__ZN13duckdb_apache6thrift9to_stringIN14duckdb_parquet6format8TimeUnitEEENSt3__212basic_stringIcNS5_11char_traitsIcEENS5_9allocatorIcEEEERKT_
__ZN13duckdb_apache6thrift9to_stringIN14duckdb_parquet6format8UUIDTypeEEENSt3__212basic_stringIcNS5_11char_traitsIcEENS5_9allocatorIcEEEERKT_
__ZN13duckdb_apache6thrift9to_stringINSt3__211__wrap_iterIPKN14duckdb_parquet6format11ColumnChunkEEEEENS2_12basic_stringIcNS2_11char_traitsIcEENS2_9allocatorIcEEEERKT_SI_
__ZN13duckdb_apache6thrift9to_stringINSt3__211__wrap_iterIPKN14duckdb_parquet6format11ColumnOrderEEEEENS2_12basic_stringIcNS2_11char_traitsIcEENS2_9allocatorIcEEEERKT_SI_
__ZN13duckdb_apache6thrift9to_stringINSt3__211__wrap_iterIPKN14duckdb_parquet6format12PageLocationEEEEENS2_12basic_stringIcNS2_11char_traitsIcEENS2_9allocatorIcEEEERKT_SI_
__ZN13duckdb_apache6thrift9to_stringINSt3__211__wrap_iterIPKN14duckdb_parquet6format13SchemaElementEEEEENS2_12basic_stringIcNS2_11char_traitsIcEENS2_9allocatorIcEEEERKT_SI_
__ZN13duckdb_apache6thrift9to_stringINSt3__211__wrap_iterIPKN14duckdb_parquet6format13SortingColumnEEEEENS2_12basic_stringIcNS2_11char_traitsIcEENS2_9allocatorIcEEEERKT_SI_
__ZN13duckdb_apache6thrift9to_stringINSt3__211__wrap_iterIPKN14duckdb_parquet6format17PageEncodingStatsEEEEENS2_12basic_stringIcNS2_11char_traitsIcEENS2_9allocatorIcEEEERKT_SI_
__ZN13duckdb_apache6thrift9to_stringINSt3__211__wrap_iterIPKN14duckdb_parquet6format8Encoding4typeEEEEENS2_12basic_stringIcNS2_11char_traitsIcEENS2_9allocatorIcEEEERKT_SJ_
__ZN13duckdb_apache6thrift9to_stringINSt3__211__wrap_iterIPKN14duckdb_parquet6format8KeyValueEEEEENS2_12basic_stringIcNS2_11char_traitsIcEENS2_9allocatorIcEEEERKT_SI_
__ZN13duckdb_apache6thrift9to_stringINSt3__211__wrap_iterIPKN14duckdb_parquet6format8RowGroupEEEEENS2_12basic_stringIcNS2_11char_traitsIcEENS2_9allocatorIcEEEERKT_SI_
__ZN13duckdb_apache6thrift9to_stringINSt3__211__wrap_iterIPKNS2_12basic_stringIcNS2_11char_traitsIcEENS2_9allocatorIcEEEEEEEES9_RKT_SF_
__ZN13duckdb_apache6thrift9to_stringINSt3__211__wrap_iterIPKxEEEENS2_12basic_stringIcNS2_11char_traitsIcEENS2_9allocatorIcEEEERKT_SF_
__ZN13duckdb_apache6thrift9to_stringINSt3__212basic_stringIcNS2_11char_traitsIcEENS2_9allocatorIcEEEEEES8_RKN6duckdb6vectorIT_Lb1EEE
__ZN13duckdb_apache6thrift9to_stringINSt3__212basic_stringIcNS2_11char_traitsIcEENS2_9allocatorIcEEEEEES8_RKT_
__ZN13duckdb_apache6thrift9to_stringINSt3__214__bit_iteratorINS2_6vectorIbNS2_9allocatorIbEEEELb1ELm0EEEEENS2_12basic_stringIcNS2_11char_traitsIcEENS5_IcEEEERKT_SG_
__ZN13duckdb_apache6thrift9to_stringIaEENSt3__212basic_stringIcNS2_11char_traitsIcEENS2_9allocatorIcEEEERKT_
__ZN13duckdb_apache6thrift9to_stringIbEENSt3__212basic_stringIcNS2_11char_traitsIcEENS2_9allocatorIcEEEERKN6duckdb6vectorIT_Lb1EEE
__ZN13duckdb_apache6thrift9to_stringIbEENSt3__212basic_stringIcNS2_11char_traitsIcEENS2_9allocatorIcEEEERKT_
__ZN13duckdb_apache6thrift9to_stringIiEENSt3__212basic_stringIcNS2_11char_traitsIcEENS2_9allocatorIcEEEERKT_
__ZN13duckdb_apache6thrift9to_stringIsEENSt3__212basic_stringIcNS2_11char_traitsIcEENS2_9allocatorIcEEEERKT_
__ZN13duckdb_apache6thrift9to_stringIxEENSt3__212basic_stringIcNS2_11char_traitsIcEENS2_9allocatorIcEEEERKN6duckdb6vectorIT_Lb1EEE
__ZN13duckdb_apache6thrift9to_stringIxEENSt3__212basic_stringIcNS2_11char_traitsIcEENS2_9allocatorIcEEEERKT_
__ZN13duckdb_apache6thrift9transport10TTransport10write_virtEPKhj
__ZN13duckdb_apache6thrift9transport10TTransport11borrow_virtEPhPj
__ZN13duckdb_apache6thrift9transport10TTransport12consume_virtEj
__ZN13duckdb_apache6thrift9transport10TTransport12readAll_virtEPhj
__ZN13duckdb_apache6thrift9transport10TTransport4openEv
__ZN13duckdb_apache6thrift9transport10TTransport4peekEv
__ZN13duckdb_apache6thrift9transport10TTransport5closeEv
__ZN13duckdb_apache6thrift9transport10TTransport5flushEv
__ZN13duckdb_apache6thrift9transport10TTransport7readEndEv
__ZN13duckdb_apache6thrift9transport10TTransport8writeEndEv
__ZN13duckdb_apache6thrift9transport10TTransport9read_virtEPhj
__ZN13duckdb_apache6thrift9transport10TTransportD2Ev
__ZN13duckdb_apache6thrift9transport11TBufferBase7consumeEj
__ZN13duckdb_apache6thrift9transport13TMemoryBuffer10borrowSlowEPhPj
__ZN13duckdb_apache6thrift9transport13TMemoryBuffer4openEv
__ZN13duckdb_apache6thrift9transport13TMemoryBuffer4peekEv
__ZN13duckdb_apache6thrift9transport13TMemoryBuffer5closeEv
__ZN13duckdb_apache6thrift9transport13TMemoryBuffer7readEndEv
__ZN13duckdb_apache6thrift9transport13TMemoryBuffer8readSlowEPhj
__ZN13duckdb_apache6thrift9transport13TMemoryBuffer8writeEndEv
__ZN13duckdb_apache6thrift9transport13TMemoryBuffer9writeSlowEPKhj
__ZN13duckdb_apache6thrift9transport13TMemoryBufferD0Ev
__ZN13duckdb_apache6thrift9transport13TMemoryBufferD2Ev
__ZN13duckdb_apache6thrift9transport17TVirtualTransportIN6duckdb19ThriftFileTransportENS1_18TTransportDefaultsEE10write_virtEPKhj
__ZN13duckdb_apache6thrift9transport17TVirtualTransportIN6duckdb19ThriftFileTransportENS1_18TTransportDefaultsEE11borrow_virtEPhPj
__ZN13duckdb_apache6thrift9transport17TVirtualTransportIN6duckdb19ThriftFileTransportENS1_18TTransportDefaultsEE12consume_virtEj
__ZN13duckdb_apache6thrift9transport17TVirtualTransportIN6duckdb19ThriftFileTransportENS1_18TTransportDefaultsEE12readAll_virtEPhj
__ZN13duckdb_apache6thrift9transport17TVirtualTransportIN6duckdb19ThriftFileTransportENS1_18TTransportDefaultsEE9read_virtEPhj
__ZN13duckdb_apache6thrift9transport17TVirtualTransportINS1_13TMemoryBufferENS1_11TBufferBaseEE10write_virtEPKhj
__ZN13duckdb_apache6thrift9transport17TVirtualTransportINS1_13TMemoryBufferENS1_11TBufferBaseEE11borrow_virtEPhPj
__ZN13duckdb_apache6thrift9transport17TVirtualTransportINS1_13TMemoryBufferENS1_11TBufferBaseEE12consume_virtEj
__ZN13duckdb_apache6thrift9transport17TVirtualTransportINS1_13TMemoryBufferENS1_11TBufferBaseEE12readAll_virtEPhj
__ZN13duckdb_apache6thrift9transport17TVirtualTransportINS1_13TMemoryBufferENS1_11TBufferBaseEE9read_virtEPhj
__ZN13duckdb_apache6thrift9transport19TTransportExceptionC2ENS2_23TTransportExceptionTypeERKNSt3__212basic_stringIcNS4_11char_traitsIcEENS4_9allocatorIcEEEE
__ZN13duckdb_apache6thrift9transport19TTransportExceptionC2ERKNSt3__212basic_stringIcNS3_11char_traitsIcEENS3_9allocatorIcEEEE
__ZN13duckdb_apache6thrift9transport19TTransportExceptionD0Ev
__ZN13duckdb_apache6thrift9transport7readAllIN6duckdb19ThriftFileTransportEEEjRT_Phj
__ZN13duckdb_apache6thrift9transport7readAllINS1_10TTransportEEEjRT_Phj
__ZN13duckdb_apache6thrift9transport7readAllINS1_11TBufferBaseEEEjRT_Phj
__ZN13duckdb_snappy15ByteArraySource4PeekEPm
__ZN13duckdb_snappy15ByteArraySource4SkipEm
__ZN13duckdb_snappy15ByteArraySourceD0Ev
__ZN13duckdb_snappy15ByteArraySourceD1Ev
__ZN13duckdb_snappy17SnappyIOVecWriter14AppendFromSelfEmm
__ZN13duckdb_snappy18SnappyDecompressor17DecompressAllTagsINS_17SnappyArrayWriterEEEvPT_
__ZN13duckdb_snappy18SnappyDecompressor17DecompressAllTagsINS_17SnappyIOVecWriterEEEvPT_
__ZN13duckdb_snappy18SnappyDecompressor17DecompressAllTagsINS_21SnappyScatteredWriterINS_19SnappySinkAllocatorEEEEEvPT_
__ZN13duckdb_snappy18SnappyDecompressor17DecompressAllTagsINS_28SnappyDecompressionValidatorEEEvPT_
__ZN13duckdb_snappy18SnappyDecompressor22ReadUncompressedLengthEPj
__ZN13duckdb_snappy19SnappySinkAllocator7DeleterEPvPKcm
__ZN13duckdb_snappy19SnappySinkAllocator8AllocateEi
__ZN13duckdb_snappy21SnappyScatteredWriterINS_19SnappySinkAllocatorEE10SlowAppendEPKcm
__ZN13duckdb_snappy21SnappyScatteredWriterINS_19SnappySinkAllocatorEE14AppendFromSelfEmm
__ZN13duckdb_snappy21SnappyScatteredWriterINS_19SnappySinkAllocatorEED2Ev
__ZN13duckdb_snappy22UncheckedByteArraySink15GetAppendBufferEmPc
__ZN13duckdb_snappy22UncheckedByteArraySink22AppendAndTakeOwnershipEPcmPFvPvPKcmES2_
__ZN13duckdb_snappy22UncheckedByteArraySink23GetAppendBufferVariableEmmPcmPm
__ZN13duckdb_snappy22UncheckedByteArraySink6AppendEPKcm
__ZN13duckdb_snappy22UncheckedByteArraySinkD0Ev
__ZN13duckdb_snappy22UncheckedByteArraySinkD1Ev
__ZN13duckdb_snappy4Sink15GetAppendBufferEmPc
__ZN13duckdb_snappy4Sink22AppendAndTakeOwnershipEPcmPFvPvPKcmES2_
__ZN13duckdb_snappy4Sink23GetAppendBufferVariableEmmPcmPm
__ZN13duckdb_snappy4SinkD0Ev
__ZN13duckdb_snappy4SinkD1Ev
__ZN13duckdb_snappy6SourceD0Ev
__ZN13duckdb_snappy6SourceD1Ev
__ZN14duckdb_parquet6format10PageHeader4readEPN13duckdb_apache6thrift8protocol9TProtocolE
__ZN14duckdb_parquet6format10PageHeaderD0Ev
__ZN14duckdb_parquet6format10PageHeaderD1Ev
__ZN14duckdb_parquet6format10Statistics4readEPN13duckdb_apache6thrift8protocol9TProtocolE
__ZN14duckdb_parquet6format10StatisticsD0Ev
__ZN14duckdb_parquet6format10StatisticsD1Ev
__ZN14duckdb_parquet6format10StringType4readEPN13duckdb_apache6thrift8protocol9TProtocolE
__ZN14duckdb_parquet6format10StringTypeD0Ev
__ZN14duckdb_parquet6format10StringTypeD1Ev
__ZN14duckdb_parquet6format11AesGcmCtrV14readEPN13duckdb_apache6thrift8protocol9TProtocolE
__ZN14duckdb_parquet6format11AesGcmCtrV1D0Ev
__ZN14duckdb_parquet6format11AesGcmCtrV1D1Ev
__ZN14duckdb_parquet6format11ColumnChunk4readEPN13duckdb_apache6thrift8protocol9TProtocolE
__ZN14duckdb_parquet6format11ColumnChunkD0Ev
__ZN14duckdb_parquet6format11ColumnChunkD1Ev
__ZN14duckdb_parquet6format11ColumnIndex4readEPN13duckdb_apache6thrift8protocol9TProtocolE
__ZN14duckdb_parquet6format11ColumnIndexD0Ev
__ZN14duckdb_parquet6format11ColumnIndexD1Ev
__ZN14duckdb_parquet6format11ColumnOrder4readEPN13duckdb_apache6thrift8protocol9TProtocolE
__ZN14duckdb_parquet6format11ColumnOrderD0Ev
__ZN14duckdb_parquet6format11ColumnOrderD1Ev
__ZN14duckdb_parquet6format11DecimalType4readEPN13duckdb_apache6thrift8protocol9TProtocolE
__ZN14duckdb_parquet6format11DecimalTypeD0Ev
__ZN14duckdb_parquet6format11DecimalTypeD1Ev
__ZN14duckdb_parquet6format11LogicalType4readEPN13duckdb_apache6thrift8protocol9TProtocolE
__ZN14duckdb_parquet6format11LogicalTypeD0Ev
__ZN14duckdb_parquet6format11LogicalTypeD1Ev
__ZN14duckdb_parquet6format11NanoSeconds4readEPN13duckdb_apache6thrift8protocol9TProtocolE
__ZN14duckdb_parquet6format11NanoSecondsD0Ev
__ZN14duckdb_parquet6format11NanoSecondsD1Ev
__ZN14duckdb_parquet6format11OffsetIndex4readEPN13duckdb_apache6thrift8protocol9TProtocolE
__ZN14duckdb_parquet6format11OffsetIndexD0Ev
__ZN14duckdb_parquet6format11OffsetIndexD1Ev
__ZN14duckdb_parquet6format12FileMetaData4readEPN13duckdb_apache6thrift8protocol9TProtocolE
__ZN14duckdb_parquet6format12FileMetaDataD0Ev
__ZN14duckdb_parquet6format12FileMetaDataD1Ev
__ZN14duckdb_parquet6format12MicroSeconds4readEPN13duckdb_apache6thrift8protocol9TProtocolE
__ZN14duckdb_parquet6format12MicroSecondsD0Ev
__ZN14duckdb_parquet6format12MicroSecondsD1Ev
__ZN14duckdb_parquet6format12MilliSeconds4readEPN13duckdb_apache6thrift8protocol9TProtocolE
__ZN14duckdb_parquet6format12MilliSecondsD0Ev
__ZN14duckdb_parquet6format12MilliSecondsD1Ev
__ZN14duckdb_parquet6format12PageLocation4readEPN13duckdb_apache6thrift8protocol9TProtocolE
__ZN14duckdb_parquet6format12PageLocationD0Ev
__ZN14duckdb_parquet6format12PageLocationD1Ev
__ZN14duckdb_parquet6format13SchemaElement4readEPN13duckdb_apache6thrift8protocol9TProtocolE
__ZN14duckdb_parquet6format13SchemaElementD0Ev
__ZN14duckdb_parquet6format13SchemaElementD1Ev
__ZN14duckdb_parquet6format13SortingColumn4readEPN13duckdb_apache6thrift8protocol9TProtocolE
__ZN14duckdb_parquet6format13SortingColumnD0Ev
__ZN14duckdb_parquet6format13SortingColumnD1Ev
__ZN14duckdb_parquet6format13TimestampType4readEPN13duckdb_apache6thrift8protocol9TProtocolE
__ZN14duckdb_parquet6format13TimestampTypeD0Ev
__ZN14duckdb_parquet6format13TimestampTypeD1Ev
__ZN14duckdb_parquet6format14ColumnMetaData4readEPN13duckdb_apache6thrift8protocol9TProtocolE
__ZN14duckdb_parquet6format14ColumnMetaDataD0Ev
__ZN14duckdb_parquet6format14ColumnMetaDataD1Ev
__ZN14duckdb_parquet6format14DataPageHeader4readEPN13duckdb_apache6thrift8protocol9TProtocolE
__ZN14duckdb_parquet6format14DataPageHeaderD0Ev
__ZN14duckdb_parquet6format14DataPageHeaderD1Ev
__ZN14duckdb_parquet6format15IndexPageHeader4readEPN13duckdb_apache6thrift8protocol9TProtocolE
__ZN14duckdb_parquet6format15IndexPageHeaderD0Ev
__ZN14duckdb_parquet6format15IndexPageHeaderD1Ev
__ZN14duckdb_parquet6format16DataPageHeaderV24readEPN13duckdb_apache6thrift8protocol9TProtocolE
__ZN14duckdb_parquet6format16DataPageHeaderV2D0Ev
__ZN14duckdb_parquet6format16DataPageHeaderV2D1Ev
__ZN14duckdb_parquet6format16TypeDefinedOrder4readEPN13duckdb_apache6thrift8protocol9TProtocolE
__ZN14duckdb_parquet6format16TypeDefinedOrderD0Ev
__ZN14duckdb_parquet6format16TypeDefinedOrderD1Ev
__ZN14duckdb_parquet6format17PageEncodingStats4readEPN13duckdb_apache6thrift8protocol9TProtocolE
__ZN14duckdb_parquet6format17PageEncodingStatsD0Ev
__ZN14duckdb_parquet6format17PageEncodingStatsD1Ev
__ZN14duckdb_parquet6format18FileCryptoMetaData4readEPN13duckdb_apache6thrift8protocol9TProtocolE
__ZN14duckdb_parquet6format18FileCryptoMetaDataD0Ev
__ZN14duckdb_parquet6format18FileCryptoMetaDataD1Ev
__ZN14duckdb_parquet6format19EncryptionAlgorithm4readEPN13duckdb_apache6thrift8protocol9TProtocolE
__ZN14duckdb_parquet6format19EncryptionAlgorithmD0Ev
__ZN14duckdb_parquet6format19EncryptionAlgorithmD1Ev
__ZN14duckdb_parquet6format20ColumnCryptoMetaData4readEPN13duckdb_apache6thrift8protocol9TProtocolE
__ZN14duckdb_parquet6format20ColumnCryptoMetaDataD0Ev
__ZN14duckdb_parquet6format20ColumnCryptoMetaDataD1Ev
__ZN14duckdb_parquet6format20DictionaryPageHeader4readEPN13duckdb_apache6thrift8protocol9TProtocolE
__ZN14duckdb_parquet6format20DictionaryPageHeaderD0Ev
__ZN14duckdb_parquet6format20DictionaryPageHeaderD1Ev
__ZN14duckdb_parquet6format23EncryptionWithColumnKey4readEPN13duckdb_apache6thrift8protocol9TProtocolE
__ZN14duckdb_parquet6format23EncryptionWithColumnKeyD0Ev
__ZN14duckdb_parquet6format23EncryptionWithColumnKeyD1Ev
__ZN14duckdb_parquet6format23EncryptionWithFooterKey4readEPN13duckdb_apache6thrift8protocol9TProtocolE
__ZN14duckdb_parquet6format23EncryptionWithFooterKeyD0Ev
__ZN14duckdb_parquet6format23EncryptionWithFooterKeyD1Ev
__ZN14duckdb_parquet6format7IntType4readEPN13duckdb_apache6thrift8protocol9TProtocolE
__ZN14duckdb_parquet6format7IntTypeD0Ev
__ZN14duckdb_parquet6format7IntTypeD1Ev
__ZN14duckdb_parquet6format7MapType4readEPN13duckdb_apache6thrift8protocol9TProtocolE
__ZN14duckdb_parquet6format7MapTypeD0Ev
__ZN14duckdb_parquet6format7MapTypeD1Ev
__ZN14duckdb_parquet6format8AesGcmV14readEPN13duckdb_apache6thrift8protocol9TProtocolE
__ZN14duckdb_parquet6format8AesGcmV1D0Ev
__ZN14duckdb_parquet6format8AesGcmV1D1Ev
__ZN14duckdb_parquet6format8BsonType4readEPN13duckdb_apache6thrift8protocol9TProtocolE
__ZN14duckdb_parquet6format8BsonTypeD0Ev
__ZN14duckdb_parquet6format8BsonTypeD1Ev
__ZN14duckdb_parquet6format8DateType4readEPN13duckdb_apache6thrift8protocol9TProtocolE
__ZN14duckdb_parquet6format8DateTypeD0Ev
__ZN14duckdb_parquet6format8DateTypeD1Ev
__ZN14duckdb_parquet6format8EnumType4readEPN13duckdb_apache6thrift8protocol9TProtocolE
__ZN14duckdb_parquet6format8EnumTypeD0Ev
__ZN14duckdb_parquet6format8EnumTypeD1Ev
__ZN14duckdb_parquet6format8JsonType4readEPN13duckdb_apache6thrift8protocol9TProtocolE
__ZN14duckdb_parquet6format8JsonTypeD0Ev
__ZN14duckdb_parquet6format8JsonTypeD1Ev
__ZN14duckdb_parquet6format8KeyValue4readEPN13duckdb_apache6thrift8protocol9TProtocolE
__ZN14duckdb_parquet6format8KeyValueD0Ev
__ZN14duckdb_parquet6format8KeyValueD1Ev
__ZN14duckdb_parquet6format8ListType4readEPN13duckdb_apache6thrift8protocol9TProtocolE
__ZN14duckdb_parquet6format8ListTypeD0Ev
__ZN14duckdb_parquet6format8ListTypeD1Ev
__ZN14duckdb_parquet6format8NullType4readEPN13duckdb_apache6thrift8protocol9TProtocolE
__ZN14duckdb_parquet6format8NullTypeD0Ev
__ZN14duckdb_parquet6format8NullTypeD1Ev
__ZN14duckdb_parquet6format8RowGroup4readEPN13duckdb_apache6thrift8protocol9TProtocolE
__ZN14duckdb_parquet6format8RowGroupD0Ev
__ZN14duckdb_parquet6format8RowGroupD1Ev
__ZN14duckdb_parquet6format8TimeType4readEPN13duckdb_apache6thrift8protocol9TProtocolE
__ZN14duckdb_parquet6format8TimeTypeD0Ev
__ZN14duckdb_parquet6format8TimeTypeD1Ev
__ZN14duckdb_parquet6format8TimeUnit4readEPN13duckdb_apache6thrift8protocol9TProtocolE
__ZN14duckdb_parquet6format8TimeUnitD0Ev
__ZN14duckdb_parquet6format8TimeUnitD1Ev
__ZN14duckdb_parquet6format8UUIDType4readEPN13duckdb_apache6thrift8protocol9TProtocolE
__ZN14duckdb_parquet6format8UUIDTypeD0Ev
__ZN14duckdb_parquet6format8UUIDTypeD1Ev
__ZN6duckdb10BssDecoder8GetBatchIdEEvPhj
__ZN6duckdb10BssDecoder8GetBatchIfEEvPhj
__ZN6duckdb10ClientData3GetERNS_13ClientContextE
__ZN6duckdb10ColumnList16GetColumnMutableENS_12LogicalIndexE
__ZN6duckdb10ColumnList9AddColumnENS_16ColumnDefinitionE
__ZN6duckdb10ColumnListC1Eb
__ZN6duckdb10ColumnListD2Ev
__ZN6duckdb10ColumnListaSEOS0_
__ZN6duckdb10Connection13TableFunctionERKNSt3__212basic_stringIcNS1_11char_traitsIcEENS1_9allocatorIcEEEERKNS_6vectorINS_5ValueELb1EEE
__ZN6duckdb10Connection13TableFunctionERKNSt3__212basic_stringIcNS1_11char_traitsIcEENS1_9allocatorIcEEEERKNS_6vectorINS_5ValueELb1EEERKNS1_13unordered_mapIS7_SB_NS_33CaseInsensitiveStringHashFunctionENS_29CaseInsensitiveStringEqualityENS5_INS1_4pairIS8_SB_EEEEEE
__ZN6duckdb10Connection16BeginTransactionEv
__ZN6duckdb10Connection17RelationFromQueryENS_10unique_ptrINS_15SelectStatementENSt3__214default_deleteIS2_EELb1EEERKNS3_12basic_stringIcNS3_11char_traitsIcEENS3_9allocatorIcEEEE
__ZN6duckdb10Connection4ViewERKNSt3__212basic_stringIcNS1_11char_traitsIcEENS1_9allocatorIcEEEE
__ZN6duckdb10Connection5QueryERKNSt3__212basic_stringIcNS1_11char_traitsIcEENS1_9allocatorIcEEEE
__ZN6duckdb10Connection5TableERKNSt3__212basic_stringIcNS1_11char_traitsIcEENS1_9allocatorIcEEEE
__ZN6duckdb10Connection6CommitEv
__ZN6duckdb10Connection7PrepareERKNSt3__212basic_stringIcNS1_11char_traitsIcEENS1_9allocatorIcEEEE
__ZN6duckdb10Connection9InterruptEv
__ZN6duckdb10ConnectionC1ERNS_16DatabaseInstanceE
__ZN6duckdb10ConnectionC1ERNS_6DuckDBE
__ZN6duckdb10ConnectionD1Ev
__ZN6duckdb10CreateInfo11DeserializeERNS_12DeserializerE
__ZN6duckdb10DbpDecoder8GetBatchIiEEvPhj
__ZN6duckdb10DbpDecoder8GetBatchIjEEvPhj
__ZN6duckdb10DbpDecoder8GetBatchIxEEvPhj
__ZN6duckdb10DbpDecoderC2EPhj
__ZN6duckdb10Expression11DeserializeERNS_12DeserializerE
__ZN6duckdb10FileHandle10OnDiskFileEv
__ZN6duckdb10FileHandle11GetFileSizeEv
__ZN6duckdb10FileHandle4ReadEPvy
__ZN6duckdb10FileHandle4ReadEPvyy
__ZN6duckdb10FileHandle4SyncEv
__ZN6duckdb10FileHandle5ResetEv
__ZN6duckdb10FileHandle5WriteEPvy
__ZN6duckdb10FileHandle6IsPipeEv
__ZN6duckdb10FileHandle7CanSeekEv
__ZN6duckdb10FileSystem10ExpandPathERKNSt3__212basic_stringIcNS1_11char_traitsIcEENS1_9allocatorIcEEEE
__ZN6duckdb10FileSystem10FileExistsERKNSt3__212basic_stringIcNS1_11char_traitsIcEENS1_9allocatorIcEEEE
__ZN6duckdb10FileSystem10RemoveFileERKNSt3__212basic_stringIcNS1_11char_traitsIcEENS1_9allocatorIcEEEE
__ZN6duckdb10FileSystem11GetFileTypeERNS_10FileHandleE
__ZN6duckdb10FileSystem12SeekPositionERNS_10FileHandleE
__ZN6duckdb10FileSystem13CanHandleFileERKNSt3__212basic_stringIcNS1_11char_traitsIcEENS1_9allocatorIcEEEE
__ZN6duckdb10FileSystem13GetFileSystemERNS_13ClientContextE
__ZN6duckdb10FileSystem13GetFileSystemERNS_16DatabaseInstanceE
__ZN6duckdb10FileSystem13PathSeparatorERKNSt3__212basic_stringIcNS1_11char_traitsIcEENS1_9allocatorIcEEEE
__ZN6duckdb10FileSystem14IsPathAbsoluteERKNSt3__212basic_stringIcNS1_11char_traitsIcEENS1_9allocatorIcEEEE
__ZN6duckdb10FileSystem14ListSubSystemsEv
__ZN6duckdb10FileSystem15CreateDirectoryERKNSt3__212basic_stringIcNS1_11char_traitsIcEENS1_9allocatorIcEEEE
__ZN6duckdb10FileSystem15DirectoryExistsERKNSt3__212basic_stringIcNS1_11char_traitsIcEENS1_9allocatorIcEEEE
__ZN6duckdb10FileSystem15ExtractBaseNameERKNSt3__212basic_stringIcNS1_11char_traitsIcEENS1_9allocatorIcEEEE
__ZN6duckdb10FileSystem15RemoveDirectoryERKNSt3__212basic_stringIcNS1_11char_traitsIcEENS1_9allocatorIcEEEE
__ZN6duckdb10FileSystem16GetHomeDirectoryEv
__ZN6duckdb10FileSystem17RegisterSubSystemENS_10unique_ptrIS0_NSt3__214default_deleteIS0_EELb1EEE
__ZN6duckdb10FileSystem17RegisterSubSystemENS_19FileCompressionTypeENS_10unique_ptrIS0_NSt3__214default_deleteIS0_EELb1EEE
__ZN6duckdb10FileSystem19GetLastModifiedTimeERNS_10FileHandleE
__ZN6duckdb10FileSystem19UnregisterSubSystemERKNSt3__212basic_stringIcNS1_11char_traitsIcEENS1_9allocatorIcEEEE
__ZN6duckdb10FileSystem22SetDisabledFileSystemsERKNS_6vectorINSt3__212basic_stringIcNS2_11char_traitsIcEENS2_9allocatorIcEEEELb1EEE
__ZN6duckdb10FileSystem3GetERNS_16AttachedDatabaseE
__ZN6duckdb10FileSystem4GlobERKNSt3__212basic_stringIcNS1_11char_traitsIcEENS1_9allocatorIcEEEEPNS_10FileOpenerE
__ZN6duckdb10FileSystem4ReadERNS_10FileHandleEPvxy
__ZN6duckdb10FileSystem4SeekERNS_10FileHandleEy
__ZN6duckdb10FileSystem5WriteERNS_10FileHandleEPvxy
__ZN6duckdb10FileSystem6IsPipeERKNSt3__212basic_stringIcNS1_11char_traitsIcEENS1_9allocatorIcEEEE
__ZN6duckdb10FileSystem7HasGlobERKNSt3__212basic_stringIcNS1_11char_traitsIcEENS1_9allocatorIcEEEE
__ZN6duckdb10FileSystem8FileSyncERNS_10FileHandleE
__ZN6duckdb10FileSystem8MoveFileERKNSt3__212basic_stringIcNS1_11char_traitsIcEENS1_9allocatorIcEEEES9_
__ZN6duckdb10FileSystem8OpenFileERKNSt3__212basic_stringIcNS1_11char_traitsIcEENS1_9allocatorIcEEEEhNS_12FileLockTypeENS_19FileCompressionTypeEPNS_10FileOpenerE
__ZN6duckdb10FileSystem8TruncateERNS_10FileHandleEx
__ZN6duckdb10FileSystem9ListFilesERKNSt3__212basic_stringIcNS1_11char_traitsIcEENS1_9allocatorIcEEEERKNS1_8functionIFvS9_bEEEPNS_10FileOpenerE
__ZN6duckdb10FileSystemD2Ev
__ZN6duckdb10FlatVector7SetNullERNS_6VectorEyb
__ZN6duckdb10ListVector11GetListSizeERKNS_6VectorE
__ZN6duckdb10ListVector11SetListSizeERNS_6VectorEy
__ZN6duckdb10ListVector15GetListCapacityERKNS_6VectorE
__ZN6duckdb10ListVector23GetConsecutiveChildListERNS_6VectorES2_yy
__ZN6duckdb10ListVector6AppendERNS_6VectorERKS1_yy
__ZN6duckdb10ListVector7ReserveERNS_6VectorEy
__ZN6duckdb10ListVector8GetEntryERNS_6VectorE
__ZN6duckdb10SelectNodeC1Ev
__ZN6duckdb10Serializer10WriteValueINSt3__212basic_stringIcNS2_11char_traitsIcEENS2_9allocatorIcEEEENS_5ValueENS_33CaseInsensitiveStringHashFunctionENS_29CaseInsensitiveStringEqualityEEEvRKNS2_13unordered_mapIT_T0_T1_T2_NS6_INS2_4pairIKSD_SE_EEEEEE
__ZN6duckdb10StringCast9OperationIbEENS_8string_tET_RNS_6VectorE
__ZN6duckdb10StringCast9OperationIdEENS_8string_tET_RNS_6VectorE
__ZN6duckdb10StringCast9OperationIxEENS_8string_tET_RNS_6VectorE
__ZN6duckdb10StringCast9OperationIyEENS_8string_tET_RNS_6VectorE
__ZN6duckdb10StringUtil10StartsWithENSt3__212basic_stringIcNS1_11char_traitsIcEENS1_9allocatorIcEEEES7_
__ZN6duckdb10StringUtil11TopNStringsENS_6vectorINSt3__24pairINS2_12basic_stringIcNS2_11char_traitsIcEENS2_9allocatorIcEEEEyEELb1EEEyy
__ZN6duckdb10StringUtil15SimilarityScoreERKNSt3__212basic_stringIcNS1_11char_traitsIcEENS1_9allocatorIcEEEES9_
__ZN6duckdb10StringUtil18GenerateRandomNameEy
__ZN6duckdb10StringUtil4JoinERKNS_6vectorINSt3__212basic_stringIcNS2_11char_traitsIcEENS2_9allocatorIcEEEELb1EEERKS8_
__ZN6duckdb10StringUtil4TrimERNSt3__212basic_stringIcNS1_11char_traitsIcEENS1_9allocatorIcEEEE
__ZN6duckdb10StringUtil5LowerERKNSt3__212basic_stringIcNS1_11char_traitsIcEENS1_9allocatorIcEEEE
__ZN6duckdb10StringUtil5SplitERKNSt3__212basic_stringIcNS1_11char_traitsIcEENS1_9allocatorIcEEEES9_
__ZN6duckdb10StringUtil5UpperERKNSt3__212basic_stringIcNS1_11char_traitsIcEENS1_9allocatorIcEEEE
__ZN6duckdb10StringUtil6CIHashERKNSt3__212basic_stringIcNS1_11char_traitsIcEENS1_9allocatorIcEEEE
__ZN6duckdb10StringUtil6FormatIJNSt3__212basic_stringIcNS2_11char_traitsIcEENS2_9allocatorIcEEEES8_EEES8_S8_DpT_
__ZN6duckdb10StringUtil6FormatIJNSt3__212basic_stringIcNS2_11char_traitsIcEENS2_9allocatorIcEEEEmmEEES8_S8_DpT_
__ZN6duckdb10StringUtil7ReplaceENSt3__212basic_stringIcNS1_11char_traitsIcEENS1_9allocatorIcEEEERKS7_S9_
__ZN6duckdb10StringUtil8CIEqualsERKNSt3__212basic_stringIcNS1_11char_traitsIcEENS1_9allocatorIcEEEES9_
__ZN6duckdb10StringUtil8ContainsERKNSt3__212basic_stringIcNS1_11char_traitsIcEENS1_9allocatorIcEEEES9_
__ZN6duckdb10StringUtil8EndsWithERKNSt3__212basic_stringIcNS1_11char_traitsIcEENS1_9allocatorIcEEEES9_
__ZN6duckdb10StructType12GetChildNameERKNS_11LogicalTypeEy
__ZN6duckdb10StructType13GetChildCountERKNS_11LogicalTypeE
__ZN6duckdb10StructType13GetChildTypesERKNS_11LogicalTypeE
__ZN6duckdb11BigIntValue3GetERKNS_5ValueE
__ZN6duckdb11DecimalType8GetScaleERKNS_11LogicalTypeE
__ZN6duckdb11DecimalType8GetWidthERKNS_11LogicalTypeE
__ZN6duckdb11DoubleValue3GetERKNS_5ValueE
__ZN6duckdb11FTSIndexing17DropFTSIndexQueryERNS_13ClientContextERKNS_18FunctionParametersE
__ZN6duckdb11FTSIndexing19CreateFTSIndexQueryERNS_13ClientContextERKNS_18FunctionParametersE
__ZN6duckdb11FunctionSetINS_13TableFunctionEED2Ev
__ZN6duckdb11FunctionSetINS_14PragmaFunctionEEC2ERKS2_
__ZN6duckdb11FunctionSetINS_14PragmaFunctionEED2Ev
__ZN6duckdb11FunctionSetINS_14ScalarFunctionEE11AddFunctionES1_
__ZN6duckdb11FunctionSetINS_14ScalarFunctionEE19GetFunctionByOffsetEy
__ZN6duckdb11FunctionSetINS_14ScalarFunctionEED2Ev
__ZN6duckdb11GreaterThan9OperationIdEEbRKT_S4_
__ZN6duckdb11GreaterThan9OperationIfEEbRKT_S4_
__ZN6duckdb11IOExceptionC1ERKNSt3__212basic_stringIcNS1_11char_traitsIcEENS1_9allocatorIcEEEE
__ZN6duckdb11IOExceptionC2ERKNSt3__212basic_stringIcNS1_11char_traitsIcEENS1_9allocatorIcEEEE
__ZN6duckdb11IOExceptionC2IJyyEEERKNSt3__212basic_stringIcNS2_11char_traitsIcEENS2_9allocatorIcEEEEDpT_
__ZN6duckdb11IOExceptionD0Ev
__ZN6duckdb11LogicalType11DeserializeERNS_12DeserializerE
__ZN6duckdb11LogicalType12TIMESTAMP_TZE
__ZN6duckdb11LogicalType3ANYE
__ZN6duckdb11LogicalType3MAPES0_S0_
__ZN6duckdb11LogicalType4BLOBE
__ZN6duckdb11LogicalType4LISTERKS0_
__ZN6duckdb11LogicalType4UUIDE
__ZN6duckdb11LogicalType5UNIONENS_6vectorINSt3__24pairINS2_12basic_stringIcNS2_11char_traitsIcEENS2_9allocatorIcEEEES0_EELb1EEE
__ZN6duckdb11LogicalType6BIGINTE
__ZN6duckdb11LogicalType6DOUBLEE
__ZN6duckdb11LogicalType6STRUCTENS_6vectorINSt3__24pairINS2_12basic_stringIcNS2_11char_traitsIcEENS2_9allocatorIcEEEES0_EELb1EEE
__ZN6duckdb11LogicalType7BOOLEANE
__ZN6duckdb11LogicalType7DECIMALEii
__ZN6duckdb11LogicalType7INTEGERE
__ZN6duckdb11LogicalType7UBIGINTE
__ZN6duckdb11LogicalType7VARCHARE
__ZN6duckdb11LogicalType8AllTypesEv
__ZN6duckdb11LogicalType8INTERVALE
__ZN6duckdb11LogicalType8ROW_TYPEE
__ZN6duckdb11LogicalType8SetAliasENSt3__212basic_stringIcNS1_11char_traitsIcEENS1_9allocatorIcEEEE
__ZN6duckdb11LogicalTypeC1ENS_13LogicalTypeIdE
__ZN6duckdb11LogicalTypeC1EOS0_
__ZN6duckdb11LogicalTypeC1ERKS0_
__ZN6duckdb11LogicalTypeC1Ev
__ZN6duckdb11LogicalTypeD1Ev
__ZN6duckdb11MiniZStream10DecompressEPKcmPcm
__ZN6duckdb11MiniZStream15FormatExceptionEPKci
__ZN6duckdb11MiniZStream8CompressEPKcmPcPm
__ZN6duckdb11MiniZStreamD2Ev
__ZN6duckdb11MyTransport10write_virtEPKhj
__ZN6duckdb11MyTransport4openEv
__ZN6duckdb11MyTransport5closeEv
__ZN6duckdb11MyTransportD0Ev
__ZN6duckdb11ObjectCache14GetObjectCacheERNS_13ClientContextE
__ZN6duckdb11ObjectCache18ObjectCacheEnabledERNS_13ClientContextE
__ZN6duckdb11ObjectCache3GetINS_24ParquetFileMetadataCacheEEENSt3__210shared_ptrIT_EERKNS3_12basic_stringIcNS3_11char_traitsIcEENS3_9allocatorIcEEEE
__ZN6duckdb11ObjectCache3PutENSt3__212basic_stringIcNS1_11char_traitsIcEENS1_9allocatorIcEEEENS1_10shared_ptrINS_16ObjectCacheEntryEEE
__ZN6duckdb11PivotColumnD2Ev
__ZN6duckdb11QueryResult4CastINS_17StreamQueryResultEEERT_v
__ZN6duckdb11StringStats11CreateEmptyENS_11LogicalTypeE
__ZN6duckdb11StringStats15MaxStringLengthERKNS_14BaseStatisticsE
__ZN6duckdb11StringStats18HasMaxStringLengthERKNS_14BaseStatisticsE
__ZN6duckdb11StringStats18SetContainsUnicodeERNS_14BaseStatisticsE
__ZN6duckdb11StringStats20ResetMaxStringLengthERNS_14BaseStatisticsE
__ZN6duckdb11StringStats6UpdateERNS_14BaseStatisticsERKNS_8string_tE
__ZN6duckdb11StringValue3GetERKNS_5ValueE
__ZN6duckdb11StructStats13CreateUnknownENS_11LogicalTypeE
__ZN6duckdb11StructStats13GetChildStatsERNS_14BaseStatisticsEy
__ZN6duckdb11StructStats13SetChildStatsERNS_14BaseStatisticsEyNS_10unique_ptrIS1_NSt3__214default_deleteIS1_EELb1EEE
__ZN6duckdb11StructValue11GetChildrenERKNS_5ValueE
__ZN6duckdb11SubqueryRefC1ENS_10unique_ptrINS_15SelectStatementENSt3__214default_deleteIS2_EELb1EEENS3_12basic_stringIcNS3_11char_traitsIcEENS3_9allocatorIcEEEE
__ZN6duckdb11TableFilter4CastINS_14ConstantFilterEEERT_v
__ZN6duckdb11TableFilter4CastINS_19ConjunctionOrFilterEEERT_v
__ZN6duckdb11TableFilter4CastINS_20ConjunctionAndFilterEEERT_v
__ZN6duckdb11Transaction10IsReadOnlyEv
__ZN6duckdb11Transaction3GetERNS_13ClientContextERNS_7CatalogE
__ZN6duckdb11TransactionC2ERNS_18TransactionManagerERNS_13ClientContextE
__ZN6duckdb11TransactionD2Ev
__ZN6duckdb11UnionByName17CombineUnionTypesERKNS_6vectorINSt3__212basic_stringIcNS2_11char_traitsIcEENS2_9allocatorIcEEEELb1EEERKNS1_INS_11LogicalTypeELb1EEERSD_RS9_RNS2_13unordered_mapIS8_yNS_33CaseInsensitiveStringHashFunctionENS_29CaseInsensitiveStringEqualityENS6_INS2_4pairIKS8_yEEEEEE
__ZN6duckdb11UnionByName9UnionColsINS_13ParquetReaderENS_14ParquetOptionsEEENS_6vectorINS_10unique_ptrIT_NSt3__214default_deleteIS6_EELb1EEELb1EEERNS_13ClientContextERKNS4_INS7_12basic_stringIcNS7_11char_traitsIcEENS7_9allocatorIcEEEELb1EEERNS4_INS_11LogicalTypeELb1EEERSK_RT0_
__ZN6duckdb11UnionVector7GetTagsERNS_6VectorE
__ZN6duckdb11UnionVector9GetMemberERNS_6VectorEy
__ZN6duckdb11VectorCacheC1ERNS_9AllocatorERKNS_11LogicalTypeEy
__ZN6duckdb11VectorCacheD2Ev
__ZN6duckdb12BaseAppender5CloseEv
__ZN6duckdb12BaseAppender5FlushEv
__ZN6duckdb12BaseAppender6AppendIDnEEvT_
__ZN6duckdb12BaseAppender6AppendINS_6date_tEEEvT_
__ZN6duckdb12BaseAppender6AppendINS_8string_tEEEvT_
__ZN6duckdb12BaseAppender6AppendIPKcEEvT_
__ZN6duckdb12BaseAppender6AppendIbEEvT_
__ZN6duckdb12BaseAppender6AppendIiEEvT_
__ZN6duckdb12BaseAppender6AppendIxEEvT_
__ZN6duckdb12BaseAppender6EndRowEv
__ZN6duckdb12BaseAppender8BeginRowEv
__ZN6duckdb12BlockManager8TruncateEv
__ZN6duckdb12BlockManagerC2ERNS_13BufferManagerE
__ZN6duckdb12BlockManagerD2Ev
__ZN6duckdb12BooleanValue3GetERKNS_5ValueE
__ZN6duckdb12BufferHandleD1Ev
__ZN6duckdb12CatalogEntry10AlterEntryERNS_13ClientContextERNS_9AlterInfoE
__ZN6duckdb12CatalogEntry12ParentSchemaEv
__ZN6duckdb12CatalogEntry9SetAsRootEv
__ZN6duckdb12CatalogEntry9UndoAlterERNS_13ClientContextERNS_9AlterInfoE
__ZN6duckdb12ClientConfig9GetConfigERNS_13ClientContextE
__ZN6duckdb12ColumnReader10DictionaryENSt3__210shared_ptrINS_16ResizeableBufferEEEy
__ZN6duckdb12ColumnReader13DictReferenceERNS_6VectorE
__ZN6duckdb12ColumnReader14DeltaByteArrayEPhyRNSt3__26bitsetILm2048EEEyRNS_6VectorE
__ZN6duckdb12ColumnReader14InitializeReadEyRKNS_6vectorIN14duckdb_parquet6format11ColumnChunkELb1EEERN13duckdb_apache6thrift8protocol9TProtocolE
__ZN6duckdb12ColumnReader14PlainReferenceENSt3__210shared_ptrINS_10ByteBufferEEERNS_6VectorE
__ZN6duckdb12ColumnReader14PlainTemplatedINS_10dtime_tz_tENS_30CallbackParquetValueConversionIxS2_XadL_ZNS_18ParquetIntToTimeTZERKxEEEEEEvNSt3__210shared_ptrINS_10ByteBufferEEEPhyRNS7_6bitsetILm2048EEEyRNS_6VectorE
__ZN6duckdb12ColumnReader14PlainTemplatedINS_10interval_tENS_23IntervalValueConversionEEEvNSt3__210shared_ptrINS_10ByteBufferEEEPhyRNS4_6bitsetILm2048EEEyRNS_6VectorE
__ZN6duckdb12ColumnReader14PlainTemplatedINS_11timestamp_tENS_30CallbackParquetValueConversionINS_5Int96ES2_XadL_ZNS_26ImpalaTimestampToTimestampERKS4_EEEEEEvNSt3__210shared_ptrINS_10ByteBufferEEEPhyRNS8_6bitsetILm2048EEEyRNS_6VectorE
__ZN6duckdb12ColumnReader14PlainTemplatedINS_11timestamp_tENS_30CallbackParquetValueConversionIxS2_XadL_ZNS_29ParquetTimestampMsToTimestampERKxEEEEEEvNSt3__210shared_ptrINS_10ByteBufferEEEPhyRNS7_6bitsetILm2048EEEyRNS_6VectorE
__ZN6duckdb12ColumnReader14PlainTemplatedINS_11timestamp_tENS_30CallbackParquetValueConversionIxS2_XadL_ZNS_29ParquetTimestampNsToTimestampERKxEEEEEEvNSt3__210shared_ptrINS_10ByteBufferEEEPhyRNS7_6bitsetILm2048EEEyRNS_6VectorE
__ZN6duckdb12ColumnReader14PlainTemplatedINS_11timestamp_tENS_30CallbackParquetValueConversionIxS2_XadL_ZNS_33ParquetTimestampMicrosToTimestampERKxEEEEEEvNSt3__210shared_ptrINS_10ByteBufferEEEPhyRNS7_6bitsetILm2048EEEyRNS_6VectorE
__ZN6duckdb12ColumnReader14PlainTemplatedINS_6date_tENS_30CallbackParquetValueConversionIiS2_XadL_ZNS_16ParquetIntToDateERKiEEEEEEvNSt3__210shared_ptrINS_10ByteBufferEEEPhyRNS7_6bitsetILm2048EEEyRNS_6VectorE
__ZN6duckdb12ColumnReader14PlainTemplatedINS_7dtime_tENS_30CallbackParquetValueConversionIiS2_XadL_ZNS_18ParquetIntToTimeMsERKiEEEEEEvNSt3__210shared_ptrINS_10ByteBufferEEEPhyRNS7_6bitsetILm2048EEEyRNS_6VectorE
__ZN6duckdb12ColumnReader14PlainTemplatedINS_7dtime_tENS_30CallbackParquetValueConversionIxS2_XadL_ZNS_16ParquetIntToTimeERKxEEEEEEvNSt3__210shared_ptrINS_10ByteBufferEEEPhyRNS7_6bitsetILm2048EEEyRNS_6VectorE
__ZN6duckdb12ColumnReader14PlainTemplatedINS_7dtime_tENS_30CallbackParquetValueConversionIxS2_XadL_ZNS_18ParquetIntToTimeNsERKxEEEEEEvNSt3__210shared_ptrINS_10ByteBufferEEEPhyRNS7_6bitsetILm2048EEEyRNS_6VectorE
__ZN6duckdb12ColumnReader14PlainTemplatedINS_8string_tENS_28StringParquetValueConversionEEEvNSt3__210shared_ptrINS_10ByteBufferEEEPhyRNS4_6bitsetILm2048EEEyRNS_6VectorE
__ZN6duckdb12ColumnReader14PlainTemplatedINS_9hugeint_tENS_19UUIDValueConversionEEEvNSt3__210shared_ptrINS_10ByteBufferEEEPhyRNS4_6bitsetILm2048EEEyRNS_6VectorE
__ZN6duckdb12ColumnReader14PlainTemplatedINS_9hugeint_tENS_29DecimalParquetValueConversionIS2_Lb0EEEEEvNSt3__210shared_ptrINS_10ByteBufferEEEPhyRNS5_6bitsetILm2048EEEyRNS_6VectorE
__ZN6duckdb12ColumnReader14PlainTemplatedINS_9hugeint_tENS_29DecimalParquetValueConversionIS2_Lb1EEEEEvNSt3__210shared_ptrINS_10ByteBufferEEEPhyRNS5_6bitsetILm2048EEEyRNS_6VectorE
__ZN6duckdb12ColumnReader14PlainTemplatedIaNS_31TemplatedParquetValueConversionIiEEEEvNSt3__210shared_ptrINS_10ByteBufferEEEPhyRNS4_6bitsetILm2048EEEyRNS_6VectorE
__ZN6duckdb12ColumnReader14PlainTemplatedIbNS_29BooleanParquetValueConversionEEEvNSt3__210shared_ptrINS_10ByteBufferEEEPhyRNS3_6bitsetILm2048EEEyRNS_6VectorE
__ZN6duckdb12ColumnReader14PlainTemplatedIbNS_31TemplatedParquetValueConversionIbEEEEvNSt3__210shared_ptrINS_10ByteBufferEEEPhyRNS4_6bitsetILm2048EEEyRNS_6VectorE
__ZN6duckdb12ColumnReader14PlainTemplatedIdNS_31TemplatedParquetValueConversionIdEEEEvNSt3__210shared_ptrINS_10ByteBufferEEEPhyRNS4_6bitsetILm2048EEEyRNS_6VectorE
__ZN6duckdb12ColumnReader14PlainTemplatedIfNS_31TemplatedParquetValueConversionIfEEEEvNSt3__210shared_ptrINS_10ByteBufferEEEPhyRNS4_6bitsetILm2048EEEyRNS_6VectorE
__ZN6duckdb12ColumnReader14PlainTemplatedIhNS_31TemplatedParquetValueConversionIjEEEEvNSt3__210shared_ptrINS_10ByteBufferEEEPhyRNS4_6bitsetILm2048EEEyRNS_6VectorE
__ZN6duckdb12ColumnReader14PlainTemplatedIiNS_29DecimalParquetValueConversionIiLb0EEEEEvNSt3__210shared_ptrINS_10ByteBufferEEEPhyRNS4_6bitsetILm2048EEEyRNS_6VectorE
__ZN6duckdb12ColumnReader14PlainTemplatedIiNS_29DecimalParquetValueConversionIiLb1EEEEEvNSt3__210shared_ptrINS_10ByteBufferEEEPhyRNS4_6bitsetILm2048EEEyRNS_6VectorE
__ZN6duckdb12ColumnReader14PlainTemplatedIiNS_31TemplatedParquetValueConversionIiEEEEvNSt3__210shared_ptrINS_10ByteBufferEEEPhyRNS4_6bitsetILm2048EEEyRNS_6VectorE
__ZN6duckdb12ColumnReader14PlainTemplatedIiNS_31TemplatedParquetValueConversionIxEEEEvNSt3__210shared_ptrINS_10ByteBufferEEEPhyRNS4_6bitsetILm2048EEEyRNS_6VectorE
__ZN6duckdb12ColumnReader14PlainTemplatedIjNS_31TemplatedParquetValueConversionIjEEEEvNSt3__210shared_ptrINS_10ByteBufferEEEPhyRNS4_6bitsetILm2048EEEyRNS_6VectorE
__ZN6duckdb12ColumnReader14PlainTemplatedIsNS_29DecimalParquetValueConversionIsLb0EEEEEvNSt3__210shared_ptrINS_10ByteBufferEEEPhyRNS4_6bitsetILm2048EEEyRNS_6VectorE
__ZN6duckdb12ColumnReader14PlainTemplatedIsNS_29DecimalParquetValueConversionIsLb1EEEEEvNSt3__210shared_ptrINS_10ByteBufferEEEPhyRNS4_6bitsetILm2048EEEyRNS_6VectorE
__ZN6duckdb12ColumnReader14PlainTemplatedIsNS_31TemplatedParquetValueConversionIiEEEEvNSt3__210shared_ptrINS_10ByteBufferEEEPhyRNS4_6bitsetILm2048EEEyRNS_6VectorE
__ZN6duckdb12ColumnReader14PlainTemplatedIsNS_31TemplatedParquetValueConversionIxEEEEvNSt3__210shared_ptrINS_10ByteBufferEEEPhyRNS4_6bitsetILm2048EEEyRNS_6VectorE
__ZN6duckdb12ColumnReader14PlainTemplatedItNS_31TemplatedParquetValueConversionIjEEEEvNSt3__210shared_ptrINS_10ByteBufferEEEPhyRNS4_6bitsetILm2048EEEyRNS_6VectorE
__ZN6duckdb12ColumnReader14PlainTemplatedIxNS_29DecimalParquetValueConversionIxLb0EEEEEvNSt3__210shared_ptrINS_10ByteBufferEEEPhyRNS4_6bitsetILm2048EEEyRNS_6VectorE
__ZN6duckdb12ColumnReader14PlainTemplatedIxNS_29DecimalParquetValueConversionIxLb1EEEEEvNSt3__210shared_ptrINS_10ByteBufferEEEPhyRNS4_6bitsetILm2048EEEyRNS_6VectorE
__ZN6duckdb12ColumnReader14PlainTemplatedIxNS_31TemplatedParquetValueConversionIiEEEEvNSt3__210shared_ptrINS_10ByteBufferEEEPhyRNS4_6bitsetILm2048EEEyRNS_6VectorE
__ZN6duckdb12ColumnReader14PlainTemplatedIxNS_31TemplatedParquetValueConversionIxEEEEvNSt3__210shared_ptrINS_10ByteBufferEEEPhyRNS4_6bitsetILm2048EEEyRNS_6VectorE
__ZN6duckdb12ColumnReader14PlainTemplatedIyNS_31TemplatedParquetValueConversionIyEEEEvNSt3__210shared_ptrINS_10ByteBufferEEEPhyRNS4_6bitsetILm2048EEEyRNS_6VectorE
__ZN6duckdb12ColumnReader16RegisterPrefetchERNS_19ThriftFileTransportEb
__ZN6duckdb12ColumnReader17ApplyPendingSkipsEy
__ZN6duckdb12ColumnReader18GroupRowsAvailableEv
__ZN6duckdb12ColumnReader19TotalCompressedSizeEv
__ZN6duckdb12ColumnReader21PrepareDeltaByteArrayERNS_16ResizeableBufferE
__ZN6duckdb12ColumnReader27PrepareDeltaLengthByteArrayERNS_16ResizeableBufferE
__ZN6duckdb12ColumnReader4CastINS_18StringColumnReaderEEERT_v
__ZN6duckdb12ColumnReader4CastINS_18StructColumnReaderEEERT_v
__ZN6duckdb12ColumnReader4CastINS_19BooleanColumnReaderEEERT_v
__ZN6duckdb12ColumnReader4ReadEyRNSt3__26bitsetILm2048EEEPhS5_RNS_6VectorE
__ZN6duckdb12ColumnReader4SkipEy
__ZN6duckdb12ColumnReader5PlainENSt3__210shared_ptrINS_10ByteBufferEEEPhyRNS1_6bitsetILm2048EEEyRNS_6VectorE
__ZN6duckdb12ColumnReader5StatsEyRKNS_6vectorIN14duckdb_parquet6format11ColumnChunkELb1EEE
__ZN6duckdb12ColumnReader7OffsetsEPjPhyRNSt3__26bitsetILm2048EEEyRNS_6VectorE
__ZN6duckdb12ColumnReader9ResetPageEv
__ZN6duckdb12ColumnReaderD0Ev
__ZN6duckdb12ColumnReaderD1Ev
__ZN6duckdb12ColumnReaderD2Ev
__ZN6duckdb12ColumnWriter10HasAnalyzeEv
__ZN6duckdb12ColumnWriter15FinalizeAnalyzeERNS_17ColumnWriterStateE
__ZN6duckdb12ColumnWriter7AnalyzeERNS_17ColumnWriterStateEPS1_RNS_6VectorEy
__ZN6duckdb12ColumnWriterD0Ev
__ZN6duckdb12ColumnWriterD1Ev
__ZN6duckdb12ColumnWriterD2Ev
__ZN6duckdb12CopyFunctionC2ENSt3__212basic_stringIcNS1_11char_traitsIcEENS1_9allocatorIcEEEE
__ZN6duckdb12CopyFunctionC2EOS0_
__ZN6duckdb12CopyFunctionC2ERKS0_
__ZN6duckdb12CopyFunctionD0Ev
__ZN6duckdb12CopyFunctionD2Ev
__ZN6duckdb12DefaultCasts15ReinterpretCastERNS_6VectorES2_yRNS_14CastParametersE
__ZN6duckdb12Deserializer12ReadPropertyINS_22MultiFileReaderOptionsEEEvtPKcRT_
__ZN6duckdb12Deserializer12ReadPropertyINS_6vectorINSt3__212basic_stringIcNS3_11char_traitsIcEENS3_9allocatorIcEEEELb1EEEEET_tPKc
__ZN6duckdb12Deserializer23ReadPropertyWithDefaultINS_6vectorINSt3__212basic_stringIcNS3_11char_traitsIcEENS3_9allocatorIcEEEELb1EEEEET_tPKc
__ZN6duckdb12Deserializer3GetIRNS_13ClientContextEEET_v
__ZN6duckdb12Deserializer4ReadINS_6vectorINS_10unique_ptrINS_10ExpressionENSt3__214default_deleteIS4_EELb1EEELb1EEEEENS5_9enable_ifIXsr9is_vectorIT_EE5valueESB_E4typeEv
__ZN6duckdb12Deserializer4ReadINS_6vectorINS_11LogicalTypeELb1EEEEENSt3__29enable_ifIXsr9is_vectorIT_EE5valueES7_E4typeEv
__ZN6duckdb12Deserializer4ReadINS_6vectorINS_13ColumnBindingELb1EEEEENSt3__29enable_ifIXsr9is_vectorIT_EE5valueES7_E4typeEv
__ZN6duckdb12Deserializer4ReadINS_6vectorINS_13PhysicalIndexELb1EEEEENSt3__29enable_ifIXsr9is_vectorIT_EE5valueES7_E4typeEv
__ZN6duckdb12Deserializer4ReadINS_6vectorINS_16ColumnDefinitionELb1EEEEENSt3__29enable_ifIXsr9is_vectorIT_EE5valueES7_E4typeEv
__ZN6duckdb12Deserializer4ReadINSt3__213unordered_mapINS2_12basic_stringIcNS2_11char_traitsIcEENS2_9allocatorIcEEEENS_5ValueENS_33CaseInsensitiveStringHashFunctionENS_29CaseInsensitiveStringEqualityENS7_INS2_4pairIKS9_SA_EEEEEEEENS2_9enable_ifIXsr16is_unordered_mapIT_EE5valueESJ_E4typeEv
__ZN6duckdb12Deserializer8ReadCharEv
__ZN6duckdb12DeserializerD0Ev
__ZN6duckdb12DeserializerD2Ev
__ZN6duckdb12ExecutorTask10DescheduleEv
__ZN6duckdb12ExecutorTask10RescheduleEv
__ZN6duckdb12ExecutorTask7ExecuteENS_17TaskExecutionModeE
__ZN6duckdb12ExecutorTaskC2ERNS_8ExecutorE
__ZN6duckdb12ExecutorTaskD2Ev
__ZN6duckdb12FtsExtension4LoadERNS_6DuckDBE
__ZN6duckdb12FtsExtension4NameEv
__ZN6duckdb12FtsExtensionD0Ev
__ZN6duckdb12FunctionDataD2Ev
__ZN6duckdb12IntegerValue3GetERKNS_5ValueE
__ZN6duckdb12JoinRelationC1ENSt3__210shared_ptrINS_8RelationEEES4_NS_10unique_ptrINS_16ParsedExpressionENS1_14default_deleteIS6_EELb1EEENS_8JoinTypeENS_11JoinRefTypeE
__ZN6duckdb12MemoryStreamC1Ey
__ZN6duckdb12MetaPipeline23CreateChildMetaPipelineERNS_8PipelineERNS_16PhysicalOperatorE
__ZN6duckdb12MetaPipeline5BuildERNS_16PhysicalOperatorE
__ZN6duckdb12NumericStats13CreateUnknownENS_11LogicalTypeE
__ZN6duckdb12NumericStats6SetMaxERNS_14BaseStatisticsERKNS_5ValueE
__ZN6duckdb12NumericStats6SetMinERNS_14BaseStatisticsERKNS_5ValueE
__ZN6duckdb12RandomEngine17NextRandomIntegerEv
__ZN6duckdb12RandomEngine3GetERNS_13ClientContextE
__ZN6duckdb12RandomEngine7SetSeedEj
__ZN6duckdb12RleBpDecoder10NextCountsIhEEbv
__ZN6duckdb12RleBpDecoder10NextCountsIjEEbv
__ZN6duckdb12RleBpDecoder8GetBatchIhEEvPhj
__ZN6duckdb12RleBpDecoder8GetBatchIjEEvPhj
__ZN6duckdb12SQLStatement4CastINS_13CopyStatementEEERT_v
__ZN6duckdb12SQLStatement4CastINS_15DeleteStatementEEERT_v
__ZN6duckdb12SQLStatement4CastINS_15InsertStatementEEERT_v
__ZN6duckdb12SQLStatement4CastINS_15SelectStatementEEERT_v
__ZN6duckdb12SQLStatement4CastINS_15UpdateStatementEEERT_v
__ZN6duckdb12StringVector11EmptyStringERNS_6VectorEy
__ZN6duckdb12StringVector15AddStringOrBlobERNS_6VectorEPKcy
__ZN6duckdb12StringVector16AddHeapReferenceERNS_6VectorES2_
__ZN6duckdb12StringVector9AddBufferERNS_6VectorENSt3__210shared_ptrINS_12VectorBufferEEE
__ZN6duckdb12StringVector9AddStringERNS_6VectorEPKcy
__ZN6duckdb12StringVector9AddStringERNS_6VectorERKNSt3__212basic_stringIcNS3_11char_traitsIcEENS3_9allocatorIcEEEE
__ZN6duckdb12StructVector10GetEntriesERNS_6VectorE
__ZN6duckdb12UBigIntValue3GetERKNS_5ValueE
__ZN6duckdb12ValidityMask7CombineERKS0_y
__ZN6duckdb12VectorBufferD0Ev
__ZN6duckdb12VectorBufferD2Ev
__ZN6duckdb12optional_idxC2Ey
__ZN6duckdb13AllocatedDataC1EOS0_
__ZN6duckdb13AllocatedDataC1ERNS_9AllocatorEPhy
__ZN6duckdb13AllocatedDataC1Ev
__ZN6duckdb13AllocatedDataD1Ev
__ZN6duckdb13AllocatedDataaSEOS0_
__ZN6duckdb13BoundCastDataD2Ev
__ZN6duckdb13BoundCastInfoC1EPFbRNS_6VectorES2_yRNS_14CastParametersEENS_10unique_ptrINS_13BoundCastDataENSt3__214default_deleteIS8_EELb1EEEPFNS7_INS_18FunctionLocalStateENSA_ISD_EELb1EEERNS_24CastLocalStateParametersEE
__ZN6duckdb13BufferManager16GetBufferManagerERNS_13ClientContextE
__ZN6duckdb13ChildFieldIDsD2Ev
__ZN6duckdb13ClientContext11ExtractPlanERKNSt3__212basic_stringIcNS1_11char_traitsIcEENS1_9allocatorIcEEEE
__ZN6duckdb13ClientContext15GetCurrentQueryEv
__ZN6duckdb13ClientContext20TryGetCurrentSettingERKNSt3__212basic_stringIcNS1_11char_traitsIcEENS1_9allocatorIcEEEERNS_5ValueE
__ZN6duckdb13ClientContext24RunFunctionInTransactionERKNSt3__28functionIFvvEEEb
__ZN6duckdb13ColumnBinding11DeserializeERNS_12DeserializerE
__ZN6duckdb13ExtensionUtil11GetFunctionERNS_16DatabaseInstanceERKNSt3__212basic_stringIcNS3_11char_traitsIcEENS3_9allocatorIcEEEE
__ZN6duckdb13ExtensionUtil12RegisterTypeERNS_16DatabaseInstanceENSt3__212basic_stringIcNS3_11char_traitsIcEENS3_9allocatorIcEEEENS_11LogicalTypeE
__ZN6duckdb13ExtensionUtil16RegisterFunctionERNS_16DatabaseInstanceENS_12CopyFunctionE
__ZN6duckdb13ExtensionUtil16RegisterFunctionERNS_16DatabaseInstanceENS_13TableFunctionE
__ZN6duckdb13ExtensionUtil16RegisterFunctionERNS_16DatabaseInstanceENS_14PragmaFunctionE
__ZN6duckdb13ExtensionUtil16RegisterFunctionERNS_16DatabaseInstanceENS_14ScalarFunctionE
__ZN6duckdb13ExtensionUtil16RegisterFunctionERNS_16DatabaseInstanceENS_16TableFunctionSetE
__ZN6duckdb13ExtensionUtil16RegisterFunctionERNS_16DatabaseInstanceENS_17PragmaFunctionSetE
__ZN6duckdb13ExtensionUtil16RegisterFunctionERNS_16DatabaseInstanceENS_17ScalarFunctionSetE
__ZN6duckdb13ExtensionUtil16RegisterFunctionERNS_16DatabaseInstanceERNS_15CreateMacroInfoE
__ZN6duckdb13ExtensionUtil17RegisterCollationERNS_16DatabaseInstanceERNS_19CreateCollationInfoE
__ZN6duckdb13ExtensionUtil19AddFunctionOverloadERNS_16DatabaseInstanceENS_14ScalarFunctionE
__ZN6duckdb13ExtensionUtil19AddFunctionOverloadERNS_16DatabaseInstanceENS_16TableFunctionSetE
__ZN6duckdb13ExtensionUtil19AddFunctionOverloadERNS_16DatabaseInstanceENS_17ScalarFunctionSetE
__ZN6duckdb13ExtensionUtil20RegisterCastFunctionERNS_16DatabaseInstanceERKNS_11LogicalTypeES5_NS_13BoundCastInfoEx
__ZN6duckdb13GetTypeIdSizeENS_12PhysicalTypeE
__ZN6duckdb13HTTPExceptionC2INSt3__28multimapINS2_12basic_stringIcNS2_11char_traitsIcEENS2_9allocatorIcEEEES9_NS2_4lessIS9_EENS7_INS2_4pairIKS9_S9_EEEEEEJEEEiS9_T_RSD_SI_DpT0_
__ZN6duckdb13HTTPExceptionD0Ev
__ZN6duckdb13HTTPExceptionD2Ev
__ZN6duckdb13IntervalValue3GetERKNS_5ValueE
__ZN6duckdb13KeywordHelper21WriteOptionallyQuotedERKNSt3__212basic_stringIcNS1_11char_traitsIcEENS1_9allocatorIcEEEEcb
__ZN6duckdb13LimitRelationC1ENSt3__210shared_ptrINS_8RelationEEExx
__ZN6duckdb13OrderRelationC1ENSt3__210shared_ptrINS_8RelationEEENS_6vectorINS_11OrderByNodeELb1EEE
__ZN6duckdb13ParquetReader15FormatExceptionIJEEESt13runtime_errorNSt3__212basic_stringIcNS3_11char_traitsIcEENS3_9allocatorIcEEEEDpT_
__ZN6duckdb13ParquetWriter15TypeIsSupportedERKNS_11LogicalTypeE
__ZN6duckdb13ParquetWriterD2Ev
__ZN6duckdb13PhysicalUnionC1ENS_6vectorINS_11LogicalTypeELb1EEENS_10unique_ptrINS_16PhysicalOperatorENSt3__214default_deleteIS5_EELb1EEES9_y
__ZN6duckdb13ProducerTokenD1Ev
__ZN6duckdb13QualifiedName5ParseERKNSt3__212basic_stringIcNS1_11char_traitsIcEENS1_9allocatorIcEEEE
__ZN6duckdb13QualifiedNameD2Ev
__ZN6duckdb13SelectionDataC1Ey
__ZN6duckdb13SetOpRelationC1ENSt3__210shared_ptrINS_8RelationEEES4_NS_16SetOperationTypeE
__ZN6duckdb13StandardEntry12ParentSchemaEv
__ZN6duckdb13StrTimeFormat20ParseFormatSpecifierERKNSt3__212basic_stringIcNS1_11char_traitsIcEENS1_9allocatorIcEEEERS0_
__ZN6duckdb13StrTimeFormatC2ERKS0_
__ZN6duckdb13StrTimeFormatD2Ev
__ZN6duckdb13StrTimeFormataSERKS0_
__ZN6duckdb13StreamWrapperD2Ev
__ZN6duckdb13TableFunctionC1ENSt3__212basic_stringIcNS1_11char_traitsIcEENS1_9allocatorIcEEEENS_6vectorINS_11LogicalTypeELb1EEEPFvRNS_13ClientContextERNS_18TableFunctionInputERNS_9DataChunkEEPFNS_10unique_ptrINS_12FunctionDataENS1_14default_deleteISK_EELb1EEESC_RNS_22TableFunctionBindInputERSA_RNS8_IS7_Lb1EEEEPFNSJ_INS_24GlobalTableFunctionStateENSL_ISV_EELb1EEESC_RNS_22TableFunctionInitInputEEPFNSJ_INS_23LocalTableFunctionStateENSL_IS12_EELb1EEERNS_16ExecutionContextESZ_PSV_E
__ZN6duckdb13TableFunctionC1ERKNS_6vectorINS_11LogicalTypeELb1EEEPFvRNS_13ClientContextERNS_18TableFunctionInputERNS_9DataChunkEEPFNS_10unique_ptrINS_12FunctionDataENSt3__214default_deleteISF_EELb1EEES7_RNS_22TableFunctionBindInputERS3_RNS1_INSG_12basic_stringIcNSG_11char_traitsIcEENSG_9allocatorIcEEEELb1EEEEPFNSE_INS_24GlobalTableFunctionStateENSH_ISX_EELb1EEES7_RNS_22TableFunctionInitInputEEPFNSE_INS_23LocalTableFunctionStateENSH_IS14_EELb1EEERNS_16ExecutionContextES11_PSX_E
__ZN6duckdb13TableFunctionC1Ev
__ZN6duckdb13TableFunctionC2ENSt3__212basic_stringIcNS1_11char_traitsIcEENS1_9allocatorIcEEEENS_6vectorINS_11LogicalTypeELb1EEEPFvRNS_13ClientContextERNS_18TableFunctionInputERNS_9DataChunkEEPFNS_10unique_ptrINS_12FunctionDataENS1_14default_deleteISK_EELb1EEESC_RNS_22TableFunctionBindInputERSA_RNS8_IS7_Lb1EEEEPFNSJ_INS_24GlobalTableFunctionStateENSL_ISV_EELb1EEESC_RNS_22TableFunctionInitInputEEPFNSJ_INS_23LocalTableFunctionStateENSL_IS12_EELb1EEERNS_16ExecutionContextESZ_PSV_E
__ZN6duckdb13TableFunctionD0Ev
__ZN6duckdb13TableFunctionD2Ev
__ZN6duckdb13TaskScheduler11YieldThreadEv
__ZN6duckdb13TaskScheduler12GetSchedulerERNS_13ClientContextE
__ZN6duckdb13TaskScheduler12ScheduleTaskERNS_13ProducerTokenENSt3__210shared_ptrINS_4TaskEEE
__ZN6duckdb13TaskScheduler14CreateProducerEv
__ZN6duckdb13TaskScheduler15NumberOfThreadsEv
__ZN6duckdb13UIntegerValue3GetERKNS_5ValueE
__ZN6duckdb14ArenaAllocator15AllocateAlignedEy
__ZN6duckdb14ArenaAllocator17ReallocateAlignedEPhyy
__ZN6duckdb14ArenaAllocator5ResetEv
__ZN6duckdb14ArenaAllocatorC1ERNS_9AllocatorEy
__ZN6duckdb14ArenaAllocatorD1Ev
__ZN6duckdb14BaseExpression4CastINS_14CaseExpressionEEERT_v
__ZN6duckdb14BaseExpression4CastINS_14CastExpressionEEERT_v
__ZN6duckdb14BaseExpression4CastINS_17CollateExpressionEEERT_v
__ZN6duckdb14BaseExpression4CastINS_18FunctionExpressionEEERT_v
__ZN6duckdb14BaseExpression4CastINS_18OperatorExpressionEEERT_v
__ZN6duckdb14BaseExpression4CastINS_19ColumnRefExpressionEEERT_v
__ZN6duckdb14BaseExpression4CastINS_21ConjunctionExpressionEEERT_v
__ZN6duckdb14BaseStatistics11CreateEmptyENS_11LogicalTypeE
__ZN6duckdb14BaseStatistics11DeserializeERNS_12DeserializerE
__ZN6duckdb14BaseStatistics13CreateUnknownENS_11LogicalTypeE
__ZN6duckdb14BaseStatistics16GetDistinctCountEv
__ZN6duckdb14BaseStatistics16SetDistinctCountEy
__ZN6duckdb14BaseStatistics3SetENS_9StatsInfoE
__ZN6duckdb14BaseStatistics5MergeERKS0_
__ZN6duckdb14BaseStatisticsD1Ev
__ZN6duckdb14BoundStatementD2Ev
__ZN6duckdb14CaseExpressionC1Ev
__ZN6duckdb14CastExpressionC1ENS_11LogicalTypeENS_10unique_ptrINS_16ParsedExpressionENSt3__214default_deleteIS3_EELb1EEEb
__ZN6duckdb14CompressedFile10InitializeEb
__ZN6duckdb14CompressedFile5CloseEv
__ZN6duckdb14CompressedFileC2ERNS_20CompressedFileSystemENS_10unique_ptrINS_10FileHandleENSt3__214default_deleteIS4_EELb1EEERKNS5_12basic_stringIcNS5_11char_traitsIcEENS5_9allocatorIcEEEE
__ZN6duckdb14CompressedFileD2Ev
__ZN6duckdb14ConstantVector7SetNullERNS_6VectorEb
__ZN6duckdb14CreateViewInfo14FromCreateViewERNS_13ClientContextERKNSt3__212basic_stringIcNS3_11char_traitsIcEENS3_9allocatorIcEEEE
__ZN6duckdb14DuckTableEntryC2ERNS_7CatalogERNS_18SchemaCatalogEntryERNS_20BoundCreateTableInfoENSt3__210shared_ptrINS_9DataTableEEE
__ZN6duckdb14DuckTableEntryD2Ev
__ZN6duckdb14FatalExceptionC2ENS_13ExceptionTypeERKNSt3__212basic_stringIcNS2_11char_traitsIcEENS2_9allocatorIcEEEE
__ZN6duckdb14FilterRelationC1ENSt3__210shared_ptrINS_8RelationEEENS_10unique_ptrINS_16ParsedExpressionENS1_14default_deleteIS6_EELb1EEE
__ZN6duckdb14ForeignKeyInfoC2ERKS0_
__ZN6duckdb14ForeignKeyInfoD2Ev
__ZN6duckdb14FunctionBinder12BindFunctionERKNSt3__212basic_stringIcNS1_11char_traitsIcEENS1_9allocatorIcEEEERNS_16TableFunctionSetERKNS_6vectorINS_11LogicalTypeELb1EEERS7_
__ZN6duckdb14FunctionBinderC1ERNS_13ClientContextE
__ZN6duckdb14InCatalogEntry13ParentCatalogEv
__ZN6duckdb14InCatalogEntry6VerifyERNS_7CatalogE
__ZN6duckdb14InCatalogEntryD2Ev
__ZN6duckdb14InterruptStateC1ENSt3__28weak_ptrINS_4TaskEEE
__ZN6duckdb14InterruptStateD2Ev
__ZN6duckdb14NextPowerOfTwoEy
__ZN6duckdb14ParquetOptionsD2Ev
__ZN6duckdb14PhysicalDetachC2ENS_10unique_ptrINS_10DetachInfoENSt3__214default_deleteIS2_EELb1EEEy
__ZN6duckdb14PragmaFunction10PragmaCallERKNSt3__212basic_stringIcNS1_11char_traitsIcEENS1_9allocatorIcEEEEPFS7_RNS_13ClientContextERKNS_18FunctionParametersEENS_6vectorINS_11LogicalTypeELb1EEESI_
__ZN6duckdb14PragmaFunction10PragmaCallERKNSt3__212basic_stringIcNS1_11char_traitsIcEENS1_9allocatorIcEEEEPFvRNS_13ClientContextERKNS_18FunctionParametersEENS_6vectorINS_11LogicalTypeELb1EEESI_
__ZN6duckdb14PragmaFunction15PragmaStatementERKNSt3__212basic_stringIcNS1_11char_traitsIcEENS1_9allocatorIcEEEEPFS7_RNS_13ClientContextERKNS_18FunctionParametersEE
__ZN6duckdb14PragmaFunction15PragmaStatementERKNSt3__212basic_stringIcNS1_11char_traitsIcEENS1_9allocatorIcEEEEPFvRNS_13ClientContextERKNS_18FunctionParametersEE
__ZN6duckdb14PragmaFunctionD2Ev
__ZN6duckdb14PreservedErrorC1ERKNS_9ExceptionE
__ZN6duckdb14PreservedErrorC1Ev
__ZN6duckdb14PreservedErrorC2ERKNSt3__212basic_stringIcNS1_11char_traitsIcEENS1_9allocatorIcEEEE
__ZN6duckdb14PreservedErrorC2ERKSt9exception
__ZN6duckdb14PreservedErrorD2Ev
__ZN6duckdb14PreservedErroraSEOS0_
__ZN6duckdb14ScalarFunctionC1ENS_6vectorINS_11LogicalTypeELb1EEES2_NSt3__28functionIFvRNS_9DataChunkERNS_15ExpressionStateERNS_6VectorEEEEPFNS_10unique_ptrINS_12FunctionDataENS4_14default_deleteISF_EELb1EEERNS_13ClientContextERS0_RNS1_INSE_INS_10ExpressionENSG_ISM_EELb1EEELb1EEEEPFvRNS_23BoundFunctionExpressionERNS_14DependencyListEEPFNSE_INS_14BaseStatisticsENSG_ISZ_EELb1EEESK_RNS_23FunctionStatisticsInputEEPFNSE_INS_18FunctionLocalStateENSG_IS16_EELb1EEES9_RKST_PSF_ES2_NS_19FunctionSideEffectsENS_20FunctionNullHandlingE
__ZN6duckdb14ScalarFunctionC1ENSt3__212basic_stringIcNS1_11char_traitsIcEENS1_9allocatorIcEEEENS_6vectorINS_11LogicalTypeELb1EEES9_NS1_8functionIFvRNS_9DataChunkERNS_15ExpressionStateERNS_6VectorEEEEPFNS_10unique_ptrINS_12FunctionDataENS1_14default_deleteISL_EELb1EEERNS_13ClientContextERS0_RNS8_INSK_INS_10ExpressionENSM_ISS_EELb1EEELb1EEEEPFvRNS_23BoundFunctionExpressionERNS_14DependencyListEEPFNSK_INS_14BaseStatisticsENSM_IS15_EELb1EEESQ_RNS_23FunctionStatisticsInputEEPFNSK_INS_18FunctionLocalStateENSM_IS1C_EELb1EEESF_RKSZ_PSL_ES9_NS_19FunctionSideEffectsENS_20FunctionNullHandlingE
__ZN6duckdb14ScalarFunctionD0Ev
__ZN6duckdb14ScalarFunctionD2Ev
__ZN6duckdb14SimpleFunctionC2ERKS0_
__ZN6duckdb14SimpleFunctionD2Ev
__ZN6duckdb14SimpleFunctionaSERKS0_
__ZN6duckdb14StarExpressionC1ENSt3__212basic_stringIcNS1_11char_traitsIcEENS1_9allocatorIcEEEE
__ZN6duckdb14StrfTimeFormat12FormatStringENS_6date_tEPiPKcPc
__ZN6duckdb14StrfTimeFormat9GetLengthENS_6date_tENS_7dtime_tEiPKc
__ZN6duckdb14StrfTimeFormatD2Ev
__ZN6duckdb14StrpTimeFormat11ParseResult11FormatErrorENS_8string_tERKNSt3__212basic_stringIcNS3_11char_traitsIcEENS3_9allocatorIcEEEE
__ZN6duckdb14StrpTimeFormat11ParseResultD2Ev
__ZN6duckdb14StrpTimeFormatC1Ev
__ZN6duckdb14TryAddOperator9OperationIxxxEEbT_T0_RT1_
__ZN6duckdb14TypeIdToStringENS_12PhysicalTypeE
__ZN6duckdb14VERSION_NUMBERE
__ZN6duckdb14ZStdFileSystem12CreateStreamEv
__ZN6duckdb14ZStdFileSystem12InBufferSizeEv
__ZN6duckdb14ZStdFileSystem13OutBufferSizeEv
__ZN6duckdb14ZStdFileSystem18OpenCompressedFileENS_10unique_ptrINS_10FileHandleENSt3__214default_deleteIS2_EELb1EEEb
__ZN6duckdb14ZStdFileSystemD0Ev
__ZN6duckdb15BaseQueryResult14GetErrorObjectEv
__ZN6duckdb15BaseQueryResult8GetErrorEv
__ZN6duckdb15BinderExceptionC1ERKNSt3__212basic_stringIcNS1_11char_traitsIcEENS1_9allocatorIcEEEE
__ZN6duckdb15BinderExceptionC2ERKNSt3__212basic_stringIcNS1_11char_traitsIcEENS1_9allocatorIcEEEE
__ZN6duckdb15BinderExceptionC2IJNSt3__212basic_stringIcNS2_11char_traitsIcEENS2_9allocatorIcEEEEEEERKS8_DpT_
__ZN6duckdb15BinderExceptionC2IJNSt3__212basic_stringIcNS2_11char_traitsIcEENS2_9allocatorIcEEEES8_EEERKS8_DpT_
__ZN6duckdb15BinderExceptionC2IJPKcEEERKNSt3__212basic_stringIcNS4_11char_traitsIcEENS4_9allocatorIcEEEEDpT_
__ZN6duckdb15BoundConstraintD2Ev
__ZN6duckdb15BufferAllocator3GetERNS_13ClientContextE
__ZN6duckdb15CastFunctionSet16ImplicitCastCostERKNS_11LogicalTypeES3_
__ZN6duckdb15CastFunctionSet20RegisterCastFunctionERKNS_11LogicalTypeES3_NS_13BoundCastInfoEx
__ZN6duckdb15CastFunctionSet20RegisterCastFunctionERKNS_11LogicalTypeES3_PFNS_13BoundCastInfoERNS_13BindCastInputES3_S3_Ex
__ZN6duckdb15ConvertToString9OperationIdEENSt3__212basic_stringIcNS2_11char_traitsIcEENS2_9allocatorIcEEEET_
__ZN6duckdb15ConvertToString9OperationIxEENSt3__212basic_stringIcNS2_11char_traitsIcEENS2_9allocatorIcEEEET_
__ZN6duckdb15CreateIndexInfoD2Ev
__ZN6duckdb15CreateTableInfoC1ERNS_18SchemaCatalogEntryENSt3__212basic_stringIcNS3_11char_traitsIcEENS3_9allocatorIcEEEE
__ZN6duckdb15CreateTableInfoC1Ev
__ZN6duckdb15CreateTableInfoD2Ev
__ZN6duckdb15DatabaseManager11GetDatabaseERNS_13ClientContextERKNSt3__212basic_stringIcNS3_11char_traitsIcEENS3_9allocatorIcEEEE
__ZN6duckdb15DatabaseManager12GetDatabasesERNS_13ClientContextE
__ZN6duckdb15DatabaseManager14DetachDatabaseERNS_13ClientContextERKNSt3__212basic_stringIcNS3_11char_traitsIcEENS3_9allocatorIcEEEENS_15OnEntryNotFoundE
__ZN6duckdb15DatabaseManager18GetDefaultDatabaseERNS_13ClientContextE
__ZN6duckdb15DatabaseManager19GetDatabaseFromPathERNS_13ClientContextERKNSt3__212basic_stringIcNS3_11char_traitsIcEENS3_9allocatorIcEEEE
__ZN6duckdb15DatabaseManager3GetERNS_13ClientContextE
__ZN6duckdb15DatabaseManager3GetERNS_16DatabaseInstanceE
__ZN6duckdb15ExpressionState10GetContextEv
__ZN6duckdb15ExtensionHelper13LoadExtensionERNS_6DuckDBERKNSt3__212basic_stringIcNS3_11char_traitsIcEENS3_9allocatorIcEEEE
__ZN6duckdb15ExtensionHelper21LoadExternalExtensionERNS_16DatabaseInstanceERNS_10FileSystemERKNSt3__212basic_stringIcNS5_11char_traitsIcEENS5_9allocatorIcEEEENS_12optional_ptrIKNS_12ClientConfigEEE
__ZN6duckdb15HandleCastError11AssignErrorERKNSt3__212basic_stringIcNS1_11char_traitsIcEENS1_9allocatorIcEEEEPS7_
__ZN6duckdb15IsRowIdColumnIdEy
__ZN6duckdb15LogicalOperator11DeserializeERNS_12DeserializerE
__ZN6duckdb15LogicalOperator17GetColumnBindingsEv
__ZN6duckdb15LogicalOperator19EstimateCardinalityERNS_13ClientContextE
__ZN6duckdb15LogicalOperator20ResolveOperatorTypesEv
__ZN6duckdb15LogicalOperator5PrintEv
__ZN6duckdb15LogicalOperator6VerifyERNS_13ClientContextE
__ZN6duckdb15LogicalOperator8MapTypesERKNS_6vectorINS_11LogicalTypeELb1EEERKNS1_IyLb1EEE
__ZN6duckdb15LogicalOperatorC2ENS_19LogicalOperatorTypeE
__ZN6duckdb15LogicalOperatorD2Ev
__ZN6duckdb15MetaTransaction3GetERNS_13ClientContextE
__ZN6duckdb15MetadataManagerC1ERNS_12BlockManagerERNS_13BufferManagerE
__ZN6duckdb15MetadataManagerD1Ev
__ZN6duckdb15MultiFileReader10BindReaderINS_13ParquetReaderENS_19ParquetReadBindDataENS_14ParquetOptionsEEENS_23MultiFileReaderBindDataERNS_13ClientContextERNS_6vectorINS_11LogicalTypeELb1EEERNS8_INSt3__212basic_stringIcNSC_11char_traitsIcEENSC_9allocatorIcEEEELb1EEERT0_RT1_
__ZN6duckdb15MultiFileReader11BindOptionsERNS_22MultiFileReaderOptionsERKNS_6vectorINSt3__212basic_stringIcNS4_11char_traitsIcEENS4_9allocatorIcEEEELb1EEERNS3_INS_11LogicalTypeELb1EEERSB_
__ZN6duckdb15MultiFileReader11GetFileListERNS_13ClientContextERKNS_5ValueERKNSt3__212basic_stringIcNS6_11char_traitsIcEENS6_9allocatorIcEEEENS_15FileGlobOptionsE
__ZN6duckdb15MultiFileReader11ParseOptionERKNSt3__212basic_stringIcNS1_11char_traitsIcEENS1_9allocatorIcEEEERKNS_5ValueERNS_22MultiFileReaderOptionsERNS_13ClientContextE
__ZN6duckdb15MultiFileReader12FinalizeBindERKNS_22MultiFileReaderOptionsERKNS_23MultiFileReaderBindDataERKNSt3__212basic_stringIcNS7_11char_traitsIcEENS7_9allocatorIcEEEERKNS_6vectorISD_Lb1EEERKNSG_INS_11LogicalTypeELb1EEESJ_RKNSG_IyLb1EEERNS_19MultiFileReaderDataERNS_13ClientContextE
__ZN6duckdb15MultiFileReader12PruneReadersINS_19ParquetReadBindDataEEEvRT_
__ZN6duckdb15MultiFileReader13AddParametersERNS_13TableFunctionE
__ZN6duckdb15MultiFileReader13CreateMappingERKNSt3__212basic_stringIcNS1_11char_traitsIcEENS1_9allocatorIcEEEERKNS_6vectorINS_11LogicalTypeELb1EEERKNSA_IS7_Lb1EEESE_SH_RKNSA_IyLb1EEENS_12optional_ptrINS_14TableFilterSetEEERNS_19MultiFileReaderDataES9_
__ZN6duckdb15MultiFileReader13FinalizeChunkERKNS_23MultiFileReaderBindDataERKNS_19MultiFileReaderDataERNS_9DataChunkE
__ZN6duckdb15MultiFileReader15BindUnionReaderINS_13ParquetReaderENS_19ParquetReadBindDataENS_14ParquetOptionsEEENS_23MultiFileReaderBindDataERNS_13ClientContextERNS_6vectorINS_11LogicalTypeELb1EEERNS8_INSt3__212basic_stringIcNSC_11char_traitsIcEENSC_9allocatorIcEEEELb1EEERT0_RT1_
__ZN6duckdb15MultiFileReader17CreateFunctionSetENS_13TableFunctionE
__ZN6duckdb15MultiFileReader21ComplexFilterPushdownERNS_13ClientContextERNS_6vectorINSt3__212basic_stringIcNS4_11char_traitsIcEENS4_9allocatorIcEEEELb1EEERKNS_22MultiFileReaderOptionsERNS_10LogicalGetERNS3_INS_10unique_ptrINS_10ExpressionENS4_14default_deleteISJ_EELb1EEELb1EEE
__ZN6duckdb15ParserExceptionC1ERKNSt3__212basic_stringIcNS1_11char_traitsIcEENS1_9allocatorIcEEEE
__ZN6duckdb15ParserExceptionC2ERKNSt3__212basic_stringIcNS1_11char_traitsIcEENS1_9allocatorIcEEEE
__ZN6duckdb15ReadAheadBuffer11AddReadHeadEyyb
__ZN6duckdb15ReadAheadBuffer8PrefetchEv
__ZN6duckdb15ReplacementScan10CanReplaceERKNSt3__212basic_stringIcNS1_11char_traitsIcEENS1_9allocatorIcEEEERKNS_6vectorIS7_Lb1EEE
__ZN6duckdb15SelectStatement11DeserializeERNS_12DeserializerE
__ZN6duckdb15SelectionVectorD2Ev
__ZN6duckdb15SyntaxExceptionC2ERKNSt3__212basic_stringIcNS1_11char_traitsIcEENS1_9allocatorIcEEEE
__ZN6duckdb15TestAllTypesFun12GetTestTypesEb
__ZN6duckdb16AttachedDatabase10GetCatalogEv
__ZN6duckdb16AttachedDatabase19ExtractDatabaseNameERKNSt3__212basic_stringIcNS1_11char_traitsIcEENS1_9allocatorIcEEEERNS_10FileSystemE
__ZN6duckdb16AttachedDatabase21GetTransactionManagerEv
__ZN6duckdb16BinarySerializer11OnObjectEndEv
__ZN6duckdb16BinarySerializer13OnObjectBeginEv
__ZN6duckdb16BinarySerializerD2Ev
__ZN6duckdb16CastColumnReader14InitializeReadEyRKNS_6vectorIN14duckdb_parquet6format11ColumnChunkELb1EEERN13duckdb_apache6thrift8protocol9TProtocolE
__ZN6duckdb16CastColumnReader16RegisterPrefetchERNS_19ThriftFileTransportEb
__ZN6duckdb16CastColumnReader18GroupRowsAvailableEv
__ZN6duckdb16CastColumnReader19TotalCompressedSizeEv
__ZN6duckdb16CastColumnReader4ReadEyRNSt3__26bitsetILm2048EEEPhS5_RNS_6VectorE
__ZN6duckdb16CastColumnReader4SkipEy
__ZN6duckdb16CastColumnReader5StatsEyRKNS_6vectorIN14duckdb_parquet6format11ColumnChunkELb1EEE
__ZN6duckdb16CastColumnReaderD0Ev
__ZN6duckdb16CastColumnReaderD2Ev
__ZN6duckdb16CatalogExceptionC1ERKNSt3__212basic_stringIcNS1_11char_traitsIcEENS1_9allocatorIcEEEE
__ZN6duckdb16CatalogExceptionC2ERKNSt3__212basic_stringIcNS1_11char_traitsIcEENS1_9allocatorIcEEEE
__ZN6duckdb16CatalogExceptionC2IJNSt3__212basic_stringIcNS2_11char_traitsIcEENS2_9allocatorIcEEEEEEERKS8_DpT_
__ZN6duckdb16CatalogExceptionC2IJNSt3__212basic_stringIcNS2_11char_traitsIcEENS2_9allocatorIcEEEES8_EEERKS8_DpT_
__ZN6duckdb16CatalogExceptionC2IJNSt3__212basic_stringIcNS2_11char_traitsIcEENS2_9allocatorIcEEEES8_S8_EEERKS8_DpT_
__ZN6duckdb16ColumnDefinition11DeserializeERNS_12DeserializerE
__ZN6duckdb16ColumnDefinition15SetDefaultValueENS_10unique_ptrINS_16ParsedExpressionENSt3__214default_deleteIS2_EELb1EEE
__ZN6duckdb16ColumnDefinition7SetTypeERKNS_11LogicalTypeE
__ZN6duckdb16ColumnDefinitionC1ENSt3__212basic_stringIcNS1_11char_traitsIcEENS1_9allocatorIcEEEENS_11LogicalTypeE
__ZN6duckdb16ColumnDefinitionD2Ev
__ZN6duckdb16DatabaseInstance11GetDatabaseERNS_13ClientContextE
__ZN6duckdb16DatabaseInstance12GetSchedulerEv
__ZN6duckdb16DatabaseInstance18GetDatabaseManagerEv
__ZN6duckdb16DatabaseInstance18SetExtensionLoadedERKNSt3__212basic_stringIcNS1_11char_traitsIcEENS1_9allocatorIcEEEE
__ZN6duckdb16DatabaseInstance20GetConnectionManagerEv
__ZN6duckdb16DateToStringCast6FormatEPcPiyb
__ZN6duckdb16EnumColumnWriter10GetRowSizeERNS_6VectorEyRNS_22BasicColumnWriterStateE
__ZN6duckdb16EnumColumnWriter11GetEncodingERNS_22BasicColumnWriterStateE
__ZN6duckdb16EnumColumnWriter11WriteVectorERNS_11WriteStreamEPNS_22ColumnWriterStatisticsEPNS_21ColumnWriterPageStateERNS_6VectorEyy
__ZN6duckdb16EnumColumnWriter13HasDictionaryERNS_22BasicColumnWriterStateE
__ZN6duckdb16EnumColumnWriter14DictionarySizeERNS_22BasicColumnWriterStateE
__ZN6duckdb16EnumColumnWriter14FlushPageStateERNS_11WriteStreamEPNS_21ColumnWriterPageStateE
__ZN6duckdb16EnumColumnWriter15FlushDictionaryERNS_22BasicColumnWriterStateEPNS_22ColumnWriterStatisticsE
__ZN6duckdb16EnumColumnWriter19InitializePageStateERNS_22BasicColumnWriterStateE
__ZN6duckdb16EnumColumnWriter20InitializeStatsStateEv
__ZN6duckdb16EnumColumnWriterD0Ev
__ZN6duckdb16EnumColumnWriterD2Ev
__ZN6duckdb16InternalAppenderC1ERNS_13ClientContextERNS_17TableCatalogEntryE
__ZN6duckdb16InternalAppenderD1Ev
__ZN6duckdb16JoinTypeToStringENS_8JoinTypeE
__ZN6duckdb16LambdaExpressionC1ENS_10unique_ptrINS_16ParsedExpressionENSt3__214default_deleteIS2_EELb1EEES6_
__ZN6duckdb16ListColumnReader14InitializeReadEyRKNS_6vectorIN14duckdb_parquet6format11ColumnChunkELb1EEERN13duckdb_apache6thrift8protocol9TProtocolE
__ZN6duckdb16ListColumnReader16RegisterPrefetchERNS_19ThriftFileTransportEb
__ZN6duckdb16ListColumnReader17ApplyPendingSkipsEy
__ZN6duckdb16ListColumnReader18GroupRowsAvailableEv
__ZN6duckdb16ListColumnReader19TotalCompressedSizeEv
__ZN6duckdb16ListColumnReader4ReadEyRNSt3__26bitsetILm2048EEEPhS5_RNS_6VectorE
__ZN6duckdb16ListColumnReaderD0Ev
__ZN6duckdb16ListColumnReaderD2Ev
__ZN6duckdb16ListColumnWriter10BeginWriteERNS_17ColumnWriterStateE
__ZN6duckdb16ListColumnWriter10HasAnalyzeEv
__ZN6duckdb16ListColumnWriter13FinalizeWriteERNS_17ColumnWriterStateE
__ZN6duckdb16ListColumnWriter15FinalizeAnalyzeERNS_17ColumnWriterStateE
__ZN6duckdb16ListColumnWriter20InitializeWriteStateERN14duckdb_parquet6format8RowGroupE
__ZN6duckdb16ListColumnWriter5WriteERNS_17ColumnWriterStateERNS_6VectorEy
__ZN6duckdb16ListColumnWriter7AnalyzeERNS_17ColumnWriterStateEPS1_RNS_6VectorEy
__ZN6duckdb16ListColumnWriter7PrepareERNS_17ColumnWriterStateEPS1_RNS_6VectorEy
__ZN6duckdb16ListColumnWriterD0Ev
__ZN6duckdb16ListColumnWriterD2Ev
__ZN6duckdb16ParquetExtension4LoadERNS_6DuckDBE
__ZN6duckdb16ParquetExtension4NameEv
__ZN6duckdb16ParquetExtensionD0Ev
__ZN6duckdb16ParquetWriteBindERNS_13ClientContextERKNS_8CopyInfoERKNS_6vectorINSt3__212basic_stringIcNS6_11char_traitsIcEENS6_9allocatorIcEEEELb1EEERKNS5_INS_11LogicalTypeELb1EEE
__ZN6duckdb16ParquetWriteSinkERNS_16ExecutionContextERNS_12FunctionDataERNS_18GlobalFunctionDataERNS_17LocalFunctionDataERNS_9DataChunkE
__ZN6duckdb16PhysicalOperator14BuildPipelinesERNS_8PipelineERNS_12MetaPipelineE
__ZN6duckdb16PhysicalOperator6VerifyEv
__ZN6duckdb16PhysicalOperatorD2Ev
__ZN6duckdb16PreparedRowGroupD2Ev
__ZN6duckdb16ResizeableBufferC2ERNS_9AllocatorEy
__ZN6duckdb16TableFunctionRefC1Ev
__ZN6duckdb16TableFunctionSetC1ENS_13TableFunctionE
__ZN6duckdb16TableFunctionSetC1ENSt3__212basic_stringIcNS1_11char_traitsIcEENS1_9allocatorIcEEEE
__ZN6duckdb16TableStorageInfoD2Ev
__ZN6duckdb16TryCastToDecimal9OperationINS_8string_tENS_9hugeint_tEEEbT_RT0_PNSt3__212basic_stringIcNS7_11char_traitsIcEENS7_9allocatorIcEEEEhh
__ZN6duckdb16TryCastToDecimal9OperationINS_8string_tEiEEbT_RT0_PNSt3__212basic_stringIcNS6_11char_traitsIcEENS6_9allocatorIcEEEEhh
__ZN6duckdb16TryCastToDecimal9OperationINS_8string_tEsEEbT_RT0_PNSt3__212basic_stringIcNS6_11char_traitsIcEENS6_9allocatorIcEEEEhh
__ZN6duckdb16TryCastToDecimal9OperationINS_8string_tExEEbT_RT0_PNSt3__212basic_stringIcNS6_11char_traitsIcEENS6_9allocatorIcEEEEhh
__ZN6duckdb16TryCastToDecimal9OperationIbNS_9hugeint_tEEEbT_RT0_PNSt3__212basic_stringIcNS6_11char_traitsIcEENS6_9allocatorIcEEEEhh
__ZN6duckdb16TryCastToDecimal9OperationIbiEEbT_RT0_PNSt3__212basic_stringIcNS5_11char_traitsIcEENS5_9allocatorIcEEEEhh
__ZN6duckdb16TryCastToDecimal9OperationIbsEEbT_RT0_PNSt3__212basic_stringIcNS5_11char_traitsIcEENS5_9allocatorIcEEEEhh
__ZN6duckdb16TryCastToDecimal9OperationIbxEEbT_RT0_PNSt3__212basic_stringIcNS5_11char_traitsIcEENS5_9allocatorIcEEEEhh
__ZN6duckdb16TryCastToDecimal9OperationIdNS_9hugeint_tEEEbT_RT0_PNSt3__212basic_stringIcNS6_11char_traitsIcEENS6_9allocatorIcEEEEhh
__ZN6duckdb16TryCastToDecimal9OperationIdiEEbT_RT0_PNSt3__212basic_stringIcNS5_11char_traitsIcEENS5_9allocatorIcEEEEhh
__ZN6duckdb16TryCastToDecimal9OperationIdsEEbT_RT0_PNSt3__212basic_stringIcNS5_11char_traitsIcEENS5_9allocatorIcEEEEhh
__ZN6duckdb16TryCastToDecimal9OperationIdxEEbT_RT0_PNSt3__212basic_stringIcNS5_11char_traitsIcEENS5_9allocatorIcEEEEhh
__ZN6duckdb16TryCastToDecimal9OperationIxNS_9hugeint_tEEEbT_RT0_PNSt3__212basic_stringIcNS6_11char_traitsIcEENS6_9allocatorIcEEEEhh
__ZN6duckdb16TryCastToDecimal9OperationIxiEEbT_RT0_PNSt3__212basic_stringIcNS5_11char_traitsIcEENS5_9allocatorIcEEEEhh
__ZN6duckdb16TryCastToDecimal9OperationIxsEEbT_RT0_PNSt3__212basic_stringIcNS5_11char_traitsIcEENS5_9allocatorIcEEEEhh
__ZN6duckdb16TryCastToDecimal9OperationIxxEEbT_RT0_PNSt3__212basic_stringIcNS5_11char_traitsIcEENS5_9allocatorIcEEEEhh
__ZN6duckdb16TryCastToDecimal9OperationIyNS_9hugeint_tEEEbT_RT0_PNSt3__212basic_stringIcNS6_11char_traitsIcEENS6_9allocatorIcEEEEhh
__ZN6duckdb16TryCastToDecimal9OperationIyiEEbT_RT0_PNSt3__212basic_stringIcNS5_11char_traitsIcEENS5_9allocatorIcEEEEhh
__ZN6duckdb16TryCastToDecimal9OperationIysEEbT_RT0_PNSt3__212basic_stringIcNS5_11char_traitsIcEENS5_9allocatorIcEEEEhh
__ZN6duckdb16TryCastToDecimal9OperationIyxEEbT_RT0_PNSt3__212basic_stringIcNS5_11char_traitsIcEENS5_9allocatorIcEEEEhh
__ZN6duckdb16UUIDColumnReader10DictionaryENSt3__210shared_ptrINS_16ResizeableBufferEEEy
__ZN6duckdb16UUIDColumnReaderC2ERNS_13ParquetReaderENS_11LogicalTypeERKN14duckdb_parquet6format13SchemaElementEyyy
__ZN6duckdb16UUIDColumnReaderD0Ev
__ZN6duckdb16UUIDColumnWriter10GetRowSizeERNS_6VectorEyRNS_22BasicColumnWriterStateE
__ZN6duckdb16UUIDColumnWriter11WriteVectorERNS_11WriteStreamEPNS_22ColumnWriterStatisticsEPNS_21ColumnWriterPageStateERNS_6VectorEyy
__ZN6duckdb16UUIDColumnWriterD0Ev
__ZN6duckdb16UniqueConstraintC1ENS_12LogicalIndexEb
__ZN6duckdb16UniqueConstraintC1ENS_6vectorINSt3__212basic_stringIcNS2_11char_traitsIcEENS2_9allocatorIcEEEELb1EEEb
__ZN6duckdb16VectorOperations11DefaultCastERNS_6VectorES2_yb
__ZN6duckdb16VectorOperations14DefaultTryCastERNS_6VectorES2_yPNSt3__212basic_stringIcNS3_11char_traitsIcEENS3_9allocatorIcEEEEb
__ZN6duckdb16ViewCatalogEntryC1ERNS_7CatalogERNS_18SchemaCatalogEntryERNS_14CreateViewInfoE
__ZN6duckdb16WindowExpression22WindowToExpressionTypeERNSt3__212basic_stringIcNS1_11char_traitsIcEENS1_9allocatorIcEEEE
__ZN6duckdb16WindowExpressionC1ENS_14ExpressionTypeENSt3__212basic_stringIcNS2_11char_traitsIcEENS2_9allocatorIcEEEES8_RKS8_
__ZN6duckdb17AggregateFunctionD0Ev
__ZN6duckdb17AggregateRelationC1ENSt3__210shared_ptrINS_8RelationEEENS_6vectorINS_10unique_ptrINS_16ParsedExpressionENS1_14default_deleteIS7_EELb1EEELb1EEESB_
__ZN6duckdb17BasePipelineEvent13PrintPipelineEv
__ZN6duckdb17BasePipelineEventC2ERNS_8PipelineE
__ZN6duckdb17BasePipelineEventD0Ev
__ZN6duckdb17BasePipelineEventD2Ev
__ZN6duckdb17BasicColumnWriter10BeginWriteERNS_17ColumnWriterStateE
__ZN6duckdb17BasicColumnWriter10GetRowSizeERNS_6VectorEyRNS_22BasicColumnWriterStateE
__ZN6duckdb17BasicColumnWriter11GetEncodingERNS_22BasicColumnWriterStateE
__ZN6duckdb17BasicColumnWriter13FinalizeWriteERNS_17ColumnWriterStateE
__ZN6duckdb17BasicColumnWriter13HasDictionaryERNS_22BasicColumnWriterStateE
__ZN6duckdb17BasicColumnWriter14DictionarySizeERNS_22BasicColumnWriterStateE
__ZN6duckdb17BasicColumnWriter14FlushPageStateERNS_11WriteStreamEPNS_21ColumnWriterPageStateE
__ZN6duckdb17BasicColumnWriter15FlushDictionaryERNS_22BasicColumnWriterStateEPNS_22ColumnWriterStatisticsE
__ZN6duckdb17BasicColumnWriter19InitializePageStateERNS_22BasicColumnWriterStateE
__ZN6duckdb17BasicColumnWriter20InitializeStatsStateEv
__ZN6duckdb17BasicColumnWriter20InitializeWriteStateERN14duckdb_parquet6format8RowGroupE
__ZN6duckdb17BasicColumnWriter5WriteERNS_17ColumnWriterStateERNS_6VectorEy
__ZN6duckdb17BasicColumnWriter7PrepareERNS_17ColumnWriterStateEPS1_RNS_6VectorEy
__ZN6duckdb17BasicColumnWriterD0Ev
__ZN6duckdb17BetweenExpressionC1ENS_10unique_ptrINS_16ParsedExpressionENSt3__214default_deleteIS2_EELb1EEES6_S6_
__ZN6duckdb17CatalogSearchPath16GetDefaultSchemaERKNSt3__212basic_stringIcNS1_11char_traitsIcEENS1_9allocatorIcEEEE
__ZN6duckdb17ColumnWriterStateD0Ev
__ZN6duckdb17ColumnWriterStateD1Ev
__ZN6duckdb17ConnectionManager17GetConnectionListEv
__ZN6duckdb17GlobalSourceState10MaxThreadsEv
__ZN6duckdb17GreaterThanEquals9OperationIdEEbRKT_S4_
__ZN6duckdb17GreaterThanEquals9OperationIfEEbRKT_S4_
__ZN6duckdb17IndexCatalogEntryC2ERNS_7CatalogERNS_18SchemaCatalogEntryERNS_15CreateIndexInfoE
__ZN6duckdb17IndexCatalogEntryD2Ev
__ZN6duckdb17InternalExceptionC1ERKNSt3__212basic_stringIcNS1_11char_traitsIcEENS1_9allocatorIcEEEE
__ZN6duckdb17InternalExceptionC2ERKNSt3__212basic_stringIcNS1_11char_traitsIcEENS1_9allocatorIcEEEE
__ZN6duckdb17InternalExceptionC2IJNSt3__212basic_stringIcNS2_11char_traitsIcEENS2_9allocatorIcEEEEEEERKS8_DpT_
__ZN6duckdb17InternalExceptionC2IJyEEERKNSt3__212basic_stringIcNS2_11char_traitsIcEENS2_9allocatorIcEEEEDpT_
__ZN6duckdb17InternalExceptionC2IJyyEEERKNSt3__212basic_stringIcNS2_11char_traitsIcEENS2_9allocatorIcEEEEDpT_
__ZN6duckdb17NotNullConstraintC1ENS_12LogicalIndexE
__ZN6duckdb17PragmaFunctionSetC1ENS_14PragmaFunctionE
__ZN6duckdb17PragmaFunctionSetC1ENSt3__212basic_stringIcNS1_11char_traitsIcEENS1_9allocatorIcEEEE
__ZN6duckdb17PreparedStatement12PendingQueryERNS_6vectorINS_5ValueELb1EEEb
__ZN6duckdb17PreparedStatementD1Ev
__ZN6duckdb17QueryErrorContext11FormatErrorIJNSt3__212basic_stringIcNS2_11char_traitsIcEENS2_9allocatorIcEEEEEEES8_RKS8_DpT_
__ZN6duckdb17QueryErrorContext11FormatErrorIJNSt3__212basic_stringIcNS2_11char_traitsIcEENS2_9allocatorIcEEEEPKcEEES8_RKS8_DpT_
__ZN6duckdb17QueryErrorContext20FormatErrorRecursiveERKNSt3__212basic_stringIcNS1_11char_traitsIcEENS1_9allocatorIcEEEERNS_6vectorINS_20ExceptionFormatValueELb1EEE
__ZN6duckdb17QueryErrorContext20FormatErrorRecursiveINSt3__212basic_stringIcNS2_11char_traitsIcEENS2_9allocatorIcEEEEJEEES8_RKS8_RNS_6vectorINS_20ExceptionFormatValueELb1EEET_DpT0_
__ZN6duckdb17QueryErrorContext20FormatErrorRecursiveINSt3__212basic_stringIcNS2_11char_traitsIcEENS2_9allocatorIcEEEEJPKcEEES8_RKS8_RNS_6vectorINS_20ExceptionFormatValueELb1EEET_DpT0_
__ZN6duckdb17QueryErrorContext6FormatERKNSt3__212basic_stringIcNS1_11char_traitsIcEENS1_9allocatorIcEEEES9_i
__ZN6duckdb17ScalarFunctionSetC1ENS_14ScalarFunctionE
__ZN6duckdb17ScalarFunctionSetC1ENSt3__212basic_stringIcNS1_11char_traitsIcEENS1_9allocatorIcEEEE
__ZN6duckdb17StandardExceptionC1ENS_13ExceptionTypeERKNSt3__212basic_stringIcNS2_11char_traitsIcEENS2_9allocatorIcEEEE
__ZN6duckdb17StreamQueryResult11MaterializeEv
__ZN6duckdb17TableCatalogEntry10GetStorageEv
__ZN6duckdb17TableCatalogEntry12ColumnExistsERKNSt3__212basic_stringIcNS1_11char_traitsIcEENS1_9allocatorIcEEEE
__ZN6duckdb17TableCatalogEntry12ColumnsToSQLERKNS_10ColumnListERKNS_6vectorINS_10unique_ptrINS_10ConstraintENSt3__214default_deleteIS6_EELb1EEELb1EEE
__ZN6duckdb17TableCatalogEntry14GetConstraintsEv
__ZN6duckdb17TableCatalogEntry19GetBoundConstraintsEv
__ZN6duckdb17TableCatalogEntry20GetColumnSegmentInfoEv
__ZN6duckdb17TableCatalogEntry21BindUpdateConstraintsERNS_10LogicalGetERNS_17LogicalProjectionERNS_13LogicalUpdateERNS_13ClientContextE
__ZN6duckdb17TableCatalogEntry9GetColumnENS_12LogicalIndexE
__ZN6duckdb17TableCatalogEntryC2ERNS_7CatalogERNS_18SchemaCatalogEntryERNS_15CreateTableInfoE
__ZN6duckdb17TableCatalogEntryD2Ev
__ZN6duckdb17TableFunctionDataD2Ev
__ZN6duckdb17TableFunctionInfoD2Ev
__ZN6duckdb17TableScanBindDataD0Ev
__ZN6duckdb17TableScanBindDataD2Ev
__ZN6duckdb17ZstdStreamWrapper10InitializeERNS_14CompressedFileEb
__ZN6duckdb17ZstdStreamWrapper4ReadERNS_10StreamDataE
__ZN6duckdb17ZstdStreamWrapper5CloseEv
__ZN6duckdb17ZstdStreamWrapper5WriteERNS_14CompressedFileERNS_10StreamDataEPhx
__ZN6duckdb17ZstdStreamWrapperD0Ev
__ZN6duckdb17ZstdStreamWrapperD1Ev
__ZN6duckdb18BaseScalarFunctionD2Ev
__ZN6duckdb18BinaryDeserializer11OnObjectEndEv
__ZN6duckdb18BinaryDeserializer13OnObjectBeginEv
__ZN6duckdb18BufferedFileWriter15GetTotalWrittenEv
__ZN6duckdb18BufferedFileWriter4SyncEv
__ZN6duckdb18BufferedFileWriterC1ERNS_10FileSystemERKNSt3__212basic_stringIcNS3_11char_traitsIcEENS3_9allocatorIcEEEEh
__ZN6duckdb18CatalogTransaction10GetContextEv
__ZN6duckdb18ConstantExpressionC1ENS_5ValueE
__ZN6duckdb18CreateFunctionInfoD0Ev
__ZN6duckdb18CreateFunctionInfoD2Ev
__ZN6duckdb18ExpressionExecutor14EvaluateScalarERNS_13ClientContextERKNS_10ExpressionEb
__ZN6duckdb18FunctionExpressionC1ERKNSt3__212basic_stringIcNS1_11char_traitsIcEENS1_9allocatorIcEEEENS_6vectorINS_10unique_ptrINS_16ParsedExpressionENS1_14default_deleteISC_EELb1EEELb1EEESF_NSB_INS_13OrderModifierENSD_ISH_EELb1EEEbbb
__ZN6duckdb18FunctionLocalStateD2Ev
__ZN6duckdb18InterruptExceptionC1Ev
__ZN6duckdb18MAX_TRANSACTION_IDE
__ZN6duckdb18OperatorExpressionC1ENS_14ExpressionTypeENS_10unique_ptrINS_16ParsedExpressionENSt3__214default_deleteIS3_EELb1EEES7_
__ZN6duckdb18OperatorExpressionC1ENS_14ExpressionTypeENS_6vectorINS_10unique_ptrINS_16ParsedExpressionENSt3__214default_deleteIS4_EELb1EEELb1EEE
__ZN6duckdb18ParquetDecodeUtils12VarintDecodeIjEET_RNS_10ByteBufferE
__ZN6duckdb18ParquetDecodeUtils12VarintDecodeIxEET_RNS_10ByteBufferE
__ZN6duckdb18ParquetDecodeUtils12VarintDecodeIyEET_RNS_10ByteBufferE
__ZN6duckdb18ParquetDecodeUtils13BITPACK_MASKSE
__ZN6duckdb18ParquetDecodeUtils9BitUnpackIhEEjRNS_10ByteBufferERhPT_jh
__ZN6duckdb18ParquetDecodeUtils9BitUnpackIiEEjRNS_10ByteBufferERhPT_jh
__ZN6duckdb18ParquetDecodeUtils9BitUnpackIjEEjRNS_10ByteBufferERhPT_jh
__ZN6duckdb18ParquetDecodeUtils9BitUnpackIxEEjRNS_10ByteBufferERhPT_jh
__ZN6duckdb18PendingQueryResult7ExecuteEv
__ZN6duckdb18PhysicalProjectionC1ENS_6vectorINS_11LogicalTypeELb1EEENS1_INS_10unique_ptrINS_10ExpressionENSt3__214default_deleteIS5_EELb1EEELb1EEEy
__ZN6duckdb18PipelineBuildState17SetPipelineSourceERNS_8PipelineERNS_16PhysicalOperatorE
__ZN6duckdb18PipelineBuildStateD2Ev
__ZN6duckdb18PrimitiveTypeStateD2Ev
__ZN6duckdb18ProjectionRelationC1ENSt3__210shared_ptrINS_8RelationEEENS_6vectorINS_10unique_ptrINS_16ParsedExpressionENS1_14default_deleteIS7_EELb1EEELb1EEENS5_INS1_12basic_stringIcNS1_11char_traitsIcEENS1_9allocatorIcEEEELb1EEE
__ZN6duckdb18SchemaCatalogEntry15GetSimilarEntryENS_18CatalogTransactionENS_11CatalogTypeERKNSt3__212basic_stringIcNS3_11char_traitsIcEENS3_9allocatorIcEEEE
__ZN6duckdb18SchemaCatalogEntry21GetCatalogTransactionERNS_13ClientContextE
__ZN6duckdb18SchemaCatalogEntryC2ERNS_7CatalogENSt3__212basic_stringIcNS3_11char_traitsIcEENS3_9allocatorIcEEEEb
__ZN6duckdb18StringColumnReader10DictionaryENSt3__210shared_ptrINS_16ResizeableBufferEEEy
__ZN6duckdb18StringColumnReader13DictReferenceERNS_6VectorE
__ZN6duckdb18StringColumnReader14DeltaByteArrayEPhyRNSt3__26bitsetILm2048EEEyRNS_6VectorE
__ZN6duckdb18StringColumnReader14PlainReferenceENSt3__210shared_ptrINS_10ByteBufferEEERNS_6VectorE
__ZN6duckdb18StringColumnReader21PrepareDeltaByteArrayERNS_16ResizeableBufferE
__ZN6duckdb18StringColumnReader27PrepareDeltaLengthByteArrayERNS_16ResizeableBufferE
__ZN6duckdb18StringColumnReaderD0Ev
__ZN6duckdb18StringColumnReaderD2Ev
__ZN6duckdb18StringColumnWriter10GetRowSizeERNS_6VectorEyRNS_22BasicColumnWriterStateE
__ZN6duckdb18StringColumnWriter10HasAnalyzeEv
__ZN6duckdb18StringColumnWriter11GetEncodingERNS_22BasicColumnWriterStateE
__ZN6duckdb18StringColumnWriter11WriteVectorERNS_11WriteStreamEPNS_22ColumnWriterStatisticsEPNS_21ColumnWriterPageStateERNS_6VectorEyy
__ZN6duckdb18StringColumnWriter13HasDictionaryERNS_22BasicColumnWriterStateE
__ZN6duckdb18StringColumnWriter14DictionarySizeERNS_22BasicColumnWriterStateE
__ZN6duckdb18StringColumnWriter14FlushPageStateERNS_11WriteStreamEPNS_21ColumnWriterPageStateE
__ZN6duckdb18StringColumnWriter15FinalizeAnalyzeERNS_17ColumnWriterStateE
__ZN6duckdb18StringColumnWriter15FlushDictionaryERNS_22BasicColumnWriterStateEPNS_22ColumnWriterStatisticsE
__ZN6duckdb18StringColumnWriter19InitializePageStateERNS_22BasicColumnWriterStateE
__ZN6duckdb18StringColumnWriter20InitializeStatsStateEv
__ZN6duckdb18StringColumnWriter20InitializeWriteStateERN14duckdb_parquet6format8RowGroupE
__ZN6duckdb18StringColumnWriter7AnalyzeERNS_17ColumnWriterStateEPS1_RNS_6VectorEy
__ZN6duckdb18StringColumnWriterD0Ev
__ZN6duckdb18StructColumnReader14InitializeReadEyRKNS_6vectorIN14duckdb_parquet6format11ColumnChunkELb1EEERN13duckdb_apache6thrift8protocol9TProtocolE
__ZN6duckdb18StructColumnReader16RegisterPrefetchERNS_19ThriftFileTransportEb
__ZN6duckdb18StructColumnReader18GroupRowsAvailableEv
__ZN6duckdb18StructColumnReader19TotalCompressedSizeEv
__ZN6duckdb18StructColumnReader4ReadEyRNSt3__26bitsetILm2048EEEPhS5_RNS_6VectorE
__ZN6duckdb18StructColumnReader4SkipEy
__ZN6duckdb18StructColumnReaderD0Ev
__ZN6duckdb18StructColumnReaderD2Ev
__ZN6duckdb18StructColumnWriter10BeginWriteERNS_17ColumnWriterStateE
__ZN6duckdb18StructColumnWriter10HasAnalyzeEv
__ZN6duckdb18StructColumnWriter13FinalizeWriteERNS_17ColumnWriterStateE
__ZN6duckdb18StructColumnWriter15FinalizeAnalyzeERNS_17ColumnWriterStateE
__ZN6duckdb18StructColumnWriter20InitializeWriteStateERN14duckdb_parquet6format8RowGroupE
__ZN6duckdb18StructColumnWriter5WriteERNS_17ColumnWriterStateERNS_6VectorEy
__ZN6duckdb18StructColumnWriter7AnalyzeERNS_17ColumnWriterStateEPS1_RNS_6VectorEy
__ZN6duckdb18StructColumnWriter7PrepareERNS_17ColumnWriterStateEPS1_RNS_6VectorEy
__ZN6duckdb18StructColumnWriterD0Ev
__ZN6duckdb18StructColumnWriterD2Ev
__ZN6duckdb18SubqueryExpressionC1Ev
__ZN6duckdb18TransactionManager24IsDuckTransactionManagerEv
__ZN6duckdb18TransactionManagerC2ERNS_16AttachedDatabaseE
__ZN6duckdb18TransactionManagerD2Ev
__ZN6duckdb19BooleanColumnReader14InitializeReadEyRKNS_6vectorIN14duckdb_parquet6format11ColumnChunkELb1EEERN13duckdb_apache6thrift8protocol9TProtocolE
__ZN6duckdb19BooleanColumnReader9ResetPageEv
__ZN6duckdb19BooleanColumnReaderC2ERNS_13ParquetReaderENS_11LogicalTypeERKN14duckdb_parquet6format13SchemaElementEyyy
__ZN6duckdb19BooleanColumnReaderD0Ev
__ZN6duckdb19BooleanColumnWriter10GetRowSizeERNS_6VectorEyRNS_22BasicColumnWriterStateE
__ZN6duckdb19BooleanColumnWriter11WriteVectorERNS_11WriteStreamEPNS_22ColumnWriterStatisticsEPNS_21ColumnWriterPageStateERNS_6VectorEyy
__ZN6duckdb19BooleanColumnWriter14FlushPageStateERNS_11WriteStreamEPNS_21ColumnWriterPageStateE
__ZN6duckdb19BooleanColumnWriter19InitializePageStateERNS_22BasicColumnWriterStateE
__ZN6duckdb19BooleanColumnWriter20InitializeStatsStateEv
__ZN6duckdb19BooleanColumnWriterD0Ev
__ZN6duckdb19BoundCastExpression13AddCastToTypeERNS_13ClientContextENS_10unique_ptrINS_10ExpressionENSt3__214default_deleteIS4_EELb1EEERKNS_11LogicalTypeEb
__ZN6duckdb19CatalogTypeToStringENS_11CatalogTypeE
__ZN6duckdb19ColumnDataScanStateD2Ev
__ZN6duckdb19ColumnRefExpressionC1ENSt3__212basic_stringIcNS1_11char_traitsIcEENS1_9allocatorIcEEEE
__ZN6duckdb19ConversionExceptionC1ERKNSt3__212basic_stringIcNS1_11char_traitsIcEENS1_9allocatorIcEEEE
__ZN6duckdb19CreateCollationInfoC1ENSt3__212basic_stringIcNS1_11char_traitsIcEENS1_9allocatorIcEEEENS_14ScalarFunctionEbb
__ZN6duckdb19CreateCollationInfoD2Ev
__ZN6duckdb19CreateDecimalReaderIiEENS_10unique_ptrINS_12ColumnReaderENSt3__214default_deleteIS2_EELb1EEERNS_13ParquetReaderERKNS_11LogicalTypeERKN14duckdb_parquet6format13SchemaElementEyyy
__ZN6duckdb19CreateDecimalReaderIxEENS_10unique_ptrINS_12ColumnReaderENSt3__214default_deleteIS2_EELb1EEERNS_13ParquetReaderERKNS_11LogicalTypeERKN14duckdb_parquet6format13SchemaElementEyyy
__ZN6duckdb19DecimalColumnReaderINS_9hugeint_tELb0EE10DictionaryENSt3__210shared_ptrINS_16ResizeableBufferEEEy
__ZN6duckdb19DecimalColumnReaderINS_9hugeint_tELb0EEC2ERNS_13ParquetReaderENS_11LogicalTypeERKN14duckdb_parquet6format13SchemaElementEyyy
__ZN6duckdb19DecimalColumnReaderINS_9hugeint_tELb0EED0Ev
__ZN6duckdb19DecimalColumnReaderINS_9hugeint_tELb1EE10DictionaryENSt3__210shared_ptrINS_16ResizeableBufferEEEy
__ZN6duckdb19DecimalColumnReaderINS_9hugeint_tELb1EEC2ERNS_13ParquetReaderENS_11LogicalTypeERKN14duckdb_parquet6format13SchemaElementEyyy
__ZN6duckdb19DecimalColumnReaderINS_9hugeint_tELb1EED0Ev
__ZN6duckdb19DecimalColumnReaderIiLb0EE10DictionaryENSt3__210shared_ptrINS_16ResizeableBufferEEEy
__ZN6duckdb19DecimalColumnReaderIiLb0EEC2ERNS_13ParquetReaderENS_11LogicalTypeERKN14duckdb_parquet6format13SchemaElementEyyy
__ZN6duckdb19DecimalColumnReaderIiLb0EED0Ev
__ZN6duckdb19DecimalColumnReaderIiLb1EE10DictionaryENSt3__210shared_ptrINS_16ResizeableBufferEEEy
__ZN6duckdb19DecimalColumnReaderIiLb1EEC2ERNS_13ParquetReaderENS_11LogicalTypeERKN14duckdb_parquet6format13SchemaElementEyyy
__ZN6duckdb19DecimalColumnReaderIiLb1EED0Ev
__ZN6duckdb19DecimalColumnReaderIsLb0EE10DictionaryENSt3__210shared_ptrINS_16ResizeableBufferEEEy
__ZN6duckdb19DecimalColumnReaderIsLb0EEC2ERNS_13ParquetReaderENS_11LogicalTypeERKN14duckdb_parquet6format13SchemaElementEyyy
__ZN6duckdb19DecimalColumnReaderIsLb0EED0Ev
__ZN6duckdb19DecimalColumnReaderIsLb1EE10DictionaryENSt3__210shared_ptrINS_16ResizeableBufferEEEy
__ZN6duckdb19DecimalColumnReaderIsLb1EEC2ERNS_13ParquetReaderENS_11LogicalTypeERKN14duckdb_parquet6format13SchemaElementEyyy
__ZN6duckdb19DecimalColumnReaderIsLb1EED0Ev
__ZN6duckdb19DecimalColumnReaderIxLb0EE10DictionaryENSt3__210shared_ptrINS_16ResizeableBufferEEEy
__ZN6duckdb19DecimalColumnReaderIxLb0EEC2ERNS_13ParquetReaderENS_11LogicalTypeERKN14duckdb_parquet6format13SchemaElementEyyy
__ZN6duckdb19DecimalColumnReaderIxLb0EED0Ev
__ZN6duckdb19DecimalColumnReaderIxLb1EE10DictionaryENSt3__210shared_ptrINS_16ResizeableBufferEEEy
__ZN6duckdb19DecimalColumnReaderIxLb1EEC2ERNS_13ParquetReaderENS_11LogicalTypeERKN14duckdb_parquet6format13SchemaElementEyyy
__ZN6duckdb19DecimalColumnReaderIxLb1EED0Ev
__ZN6duckdb19DeserializationData5UnsetINS_11LogicalTypeEEEvv
__ZN6duckdb19EnumWriterPageStateD0Ev
__ZN6duckdb19MultiFileReaderDataD2Ev
__ZN6duckdb19OutOfRangeExceptionC1ERKNSt3__212basic_stringIcNS1_11char_traitsIcEENS1_9allocatorIcEEEE
__ZN6duckdb19OutOfRangeExceptionC2ERKNSt3__212basic_stringIcNS1_11char_traitsIcEENS1_9allocatorIcEEEE
__ZN6duckdb19OutOfRangeExceptionC2IJNSt3__212basic_stringIcNS2_11char_traitsIcEENS2_9allocatorIcEEEES8_S8_EEERKS8_DpT_
__ZN6duckdb19ParquetDecimalUtils16ReadDecimalValueINS_9hugeint_tEEET_PKhy
__ZN6duckdb19ParquetDecimalUtils16ReadDecimalValueIiEET_PKhy
__ZN6duckdb19ParquetDecimalUtils16ReadDecimalValueIsEET_PKhy
__ZN6duckdb19ParquetDecimalUtils16ReadDecimalValueIxEET_PKhy
__ZN6duckdb19ParquetGetBatchInfoEPKNS_12FunctionDataE
__ZN6duckdb19ParquetMetaDataBindILb0EEENS_10unique_ptrINS_12FunctionDataENSt3__214default_deleteIS2_EELb1EEERNS_13ClientContextERNS_22TableFunctionBindInputERNS_6vectorINS_11LogicalTypeELb1EEERNSB_INS3_12basic_stringIcNS3_11char_traitsIcEENS3_9allocatorIcEEEELb1EEE
__ZN6duckdb19ParquetMetaDataBindILb1EEENS_10unique_ptrINS_12FunctionDataENSt3__214default_deleteIS2_EELb1EEERNS_13ClientContextERNS_22TableFunctionBindInputERNS_6vectorINS_11LogicalTypeELb1EEERNSB_INS3_12basic_stringIcNS3_11char_traitsIcEENS3_9allocatorIcEEEELb1EEE
__ZN6duckdb19ParquetMetaDataInitILb0EEENS_10unique_ptrINS_24GlobalTableFunctionStateENSt3__214default_deleteIS2_EELb1EEERNS_13ClientContextERNS_22TableFunctionInitInputE
__ZN6duckdb19ParquetMetaDataInitILb1EEENS_10unique_ptrINS_24GlobalTableFunctionStateENSt3__214default_deleteIS2_EELb1EEERNS_13ClientContextERNS_22TableFunctionInitInputE
__ZN6duckdb19ParquetReadBindData10InitializeENSt3__210shared_ptrINS_13ParquetReaderEEE
__ZN6duckdb19ParquetReadBindDataD0Ev
__ZN6duckdb19ParquetReadBindDataD2Ev
__ZN6duckdb19ParquetScanFunction11WaitForFileEyRNS_22ParquetReadGlobalStateERNSt3__211unique_lockINS3_5mutexEEE
__ZN6duckdb19ParquetScanFunction14GetFunctionSetEv
__ZN6duckdb19ParquetScanFunction15ParquetProgressERNS_13ClientContextEPKNS_12FunctionDataEPKNS_24GlobalTableFunctionStateE
__ZN6duckdb19ParquetScanFunction15ParquetReadBindERNS_13ClientContextERNS_8CopyInfoERNS_6vectorINSt3__212basic_stringIcNS6_11char_traitsIcEENS6_9allocatorIcEEEELb1EEERNS5_INS_11LogicalTypeELb1EEE
__ZN6duckdb19ParquetScanFunction15ParquetScanBindERNS_13ClientContextERNS_22TableFunctionBindInputERNS_6vectorINS_11LogicalTypeELb1EEERNS5_INSt3__212basic_stringIcNS9_11char_traitsIcEENS9_9allocatorIcEEEELb1EEE
__ZN6duckdb19ParquetScanFunction15TryOpenNextFileERNS_13ClientContextERKNS_19ParquetReadBindDataERNS_21ParquetReadLocalStateERNS_22ParquetReadGlobalStateERNSt3__211unique_lockINSA_5mutexEEE
__ZN6duckdb19ParquetScanFunction16ParquetScanStatsERNS_13ClientContextEPKNS_12FunctionDataEy
__ZN6duckdb19ParquetScanFunction18ParquetCardinalityERNS_13ClientContextEPKNS_12FunctionDataE
__ZN6duckdb19ParquetScanFunction20ParquetScanInitLocalERNS_16ExecutionContextERNS_22TableFunctionInitInputEPNS_24GlobalTableFunctionStateE
__ZN6duckdb19ParquetScanFunction20ParquetScanSerializeERNS_10SerializerENS_12optional_ptrINS_12FunctionDataEEERKNS_13TableFunctionE
__ZN6duckdb19ParquetScanFunction21ParquetScanInitGlobalERNS_13ClientContextERNS_22TableFunctionInitInputE
__ZN6duckdb19ParquetScanFunction22ParquetScanDeserializeERNS_12DeserializerERNS_13TableFunctionE
__ZN6duckdb19ParquetScanFunction23ParquetScanBindInternalERNS_13ClientContextENS_6vectorINSt3__212basic_stringIcNS4_11char_traitsIcEENS4_9allocatorIcEEEELb1EEERNS3_INS_11LogicalTypeELb1EEERSB_NS_14ParquetOptionsE
__ZN6duckdb19ParquetScanFunction24ParquetParallelStateNextERNS_13ClientContextERKNS_19ParquetReadBindDataERNS_21ParquetReadLocalStateERNS_22ParquetReadGlobalStateE
__ZN6duckdb19ParquetScanFunction24ParquetScanGetBatchIndexERNS_13ClientContextEPKNS_12FunctionDataEPNS_23LocalTableFunctionStateEPNS_24GlobalTableFunctionStateE
__ZN6duckdb19ParquetScanFunction25ParquetScanImplementationERNS_13ClientContextERNS_18TableFunctionInputERNS_9DataChunkE
__ZN6duckdb19ParquetScanFunction28ParquetComplexFilterPushdownERNS_13ClientContextERNS_10LogicalGetEPNS_12FunctionDataERNS_6vectorINS_10unique_ptrINS_10ExpressionENSt3__214default_deleteIS9_EELb1EEELb1EEE
__ZN6duckdb19ParquetWriteCombineERNS_16ExecutionContextERNS_12FunctionDataERNS_18GlobalFunctionDataERNS_17LocalFunctionDataE
__ZN6duckdb19PersistentTableDataD1Ev
__ZN6duckdb19ThriftFileTransport4readEPhj
__ZN6duckdb19ThriftFileTransport8PrefetchEyy
__ZN6duckdb19ThriftFileTransportD0Ev
__ZN6duckdb19ThriftFileTransportD2Ev
__ZN6duckdb19TryMultiplyOperator9OperationIxxxEEbT_T0_RT1_
__ZN6duckdb19TrySubtractOperator9OperationIiiiEEbT_T0_RT1_
__ZN6duckdb19TrySubtractOperator9OperationIxxxEEbT_T0_RT1_
__ZN6duckdb19UUIDValueConversion9PlainReadERNS_10ByteBufferERNS_12ColumnReaderE
__ZN6duckdb19UnifiedVectorFormatD2Ev
__ZN6duckdb20BoundCheckConstraintD0Ev
__ZN6duckdb20BoundCheckConstraintD2Ev
__ZN6duckdb20BoundCreateTableInfoD2Ev
__ZN6duckdb20CallbackColumnReaderINS_5Int96ENS_11timestamp_tEXadL_ZNS_26ImpalaTimestampToTimestampERKS1_EEE10DictionaryENSt3__210shared_ptrINS_16ResizeableBufferEEEy
__ZN6duckdb20CallbackColumnReaderINS_5Int96ENS_11timestamp_tEXadL_ZNS_26ImpalaTimestampToTimestampERKS1_EEEC2ERNS_13ParquetReaderENS_11LogicalTypeERKN14duckdb_parquet6format13SchemaElementEyyy
__ZN6duckdb20CallbackColumnReaderINS_5Int96ENS_11timestamp_tEXadL_ZNS_26ImpalaTimestampToTimestampERKS1_EEED0Ev
__ZN6duckdb20CallbackColumnReaderIiNS_6date_tEXadL_ZNS_16ParquetIntToDateERKiEEE10DictionaryENSt3__210shared_ptrINS_16ResizeableBufferEEEy
__ZN6duckdb20CallbackColumnReaderIiNS_6date_tEXadL_ZNS_16ParquetIntToDateERKiEEEC2ERNS_13ParquetReaderENS_11LogicalTypeERKN14duckdb_parquet6format13SchemaElementEyyy
__ZN6duckdb20CallbackColumnReaderIiNS_6date_tEXadL_ZNS_16ParquetIntToDateERKiEEED0Ev
__ZN6duckdb20CallbackColumnReaderIiNS_7dtime_tEXadL_ZNS_18ParquetIntToTimeMsERKiEEE10DictionaryENSt3__210shared_ptrINS_16ResizeableBufferEEEy
__ZN6duckdb20CallbackColumnReaderIiNS_7dtime_tEXadL_ZNS_18ParquetIntToTimeMsERKiEEEC2ERNS_13ParquetReaderENS_11LogicalTypeERKN14duckdb_parquet6format13SchemaElementEyyy
__ZN6duckdb20CallbackColumnReaderIiNS_7dtime_tEXadL_ZNS_18ParquetIntToTimeMsERKiEEED0Ev
__ZN6duckdb20CallbackColumnReaderIxNS_10dtime_tz_tEXadL_ZNS_18ParquetIntToTimeTZERKxEEE10DictionaryENSt3__210shared_ptrINS_16ResizeableBufferEEEy
__ZN6duckdb20CallbackColumnReaderIxNS_10dtime_tz_tEXadL_ZNS_18ParquetIntToTimeTZERKxEEEC2ERNS_13ParquetReaderENS_11LogicalTypeERKN14duckdb_parquet6format13SchemaElementEyyy
__ZN6duckdb20CallbackColumnReaderIxNS_10dtime_tz_tEXadL_ZNS_18ParquetIntToTimeTZERKxEEED0Ev
__ZN6duckdb20CallbackColumnReaderIxNS_11timestamp_tEXadL_ZNS_29ParquetTimestampMsToTimestampERKxEEE10DictionaryENSt3__210shared_ptrINS_16ResizeableBufferEEEy
__ZN6duckdb20CallbackColumnReaderIxNS_11timestamp_tEXadL_ZNS_29ParquetTimestampMsToTimestampERKxEEEC2ERNS_13ParquetReaderENS_11LogicalTypeERKN14duckdb_parquet6format13SchemaElementEyyy
__ZN6duckdb20CallbackColumnReaderIxNS_11timestamp_tEXadL_ZNS_29ParquetTimestampMsToTimestampERKxEEED0Ev
__ZN6duckdb20CallbackColumnReaderIxNS_11timestamp_tEXadL_ZNS_29ParquetTimestampNsToTimestampERKxEEE10DictionaryENSt3__210shared_ptrINS_16ResizeableBufferEEEy
__ZN6duckdb20CallbackColumnReaderIxNS_11timestamp_tEXadL_ZNS_29ParquetTimestampNsToTimestampERKxEEEC2ERNS_13ParquetReaderENS_11LogicalTypeERKN14duckdb_parquet6format13SchemaElementEyyy
__ZN6duckdb20CallbackColumnReaderIxNS_11timestamp_tEXadL_ZNS_29ParquetTimestampNsToTimestampERKxEEED0Ev
__ZN6duckdb20CallbackColumnReaderIxNS_11timestamp_tEXadL_ZNS_33ParquetTimestampMicrosToTimestampERKxEEE10DictionaryENSt3__210shared_ptrINS_16ResizeableBufferEEEy
__ZN6duckdb20CallbackColumnReaderIxNS_11timestamp_tEXadL_ZNS_33ParquetTimestampMicrosToTimestampERKxEEEC2ERNS_13ParquetReaderENS_11LogicalTypeERKN14duckdb_parquet6format13SchemaElementEyyy
__ZN6duckdb20CallbackColumnReaderIxNS_11timestamp_tEXadL_ZNS_33ParquetTimestampMicrosToTimestampERKxEEED0Ev
__ZN6duckdb20CallbackColumnReaderIxNS_7dtime_tEXadL_ZNS_16ParquetIntToTimeERKxEEE10DictionaryENSt3__210shared_ptrINS_16ResizeableBufferEEEy
__ZN6duckdb20CallbackColumnReaderIxNS_7dtime_tEXadL_ZNS_16ParquetIntToTimeERKxEEEC2ERNS_13ParquetReaderENS_11LogicalTypeERKN14duckdb_parquet6format13SchemaElementEyyy
__ZN6duckdb20CallbackColumnReaderIxNS_7dtime_tEXadL_ZNS_16ParquetIntToTimeERKxEEED0Ev
__ZN6duckdb20CallbackColumnReaderIxNS_7dtime_tEXadL_ZNS_18ParquetIntToTimeNsERKxEEE10DictionaryENSt3__210shared_ptrINS_16ResizeableBufferEEEy
__ZN6duckdb20CallbackColumnReaderIxNS_7dtime_tEXadL_ZNS_18ParquetIntToTimeNsERKxEEEC2ERNS_13ParquetReaderENS_11LogicalTypeERKN14duckdb_parquet6format13SchemaElementEyyy
__ZN6duckdb20CallbackColumnReaderIxNS_7dtime_tEXadL_ZNS_18ParquetIntToTimeNsERKxEEED0Ev
__ZN6duckdb20ColumnDataCollection12ResultEqualsERKS0_S2_RNSt3__212basic_stringIcNS3_11char_traitsIcEENS3_9allocatorIcEEEEb
__ZN6duckdb20ColumnDataCollection16InitializeAppendERNS_21ColumnDataAppendStateE
__ZN6duckdb20ColumnDataCollection17GetHeapReferencesEv
__ZN6duckdb20ColumnDataCollection5ResetEv
__ZN6duckdb20ColumnDataCollection6AppendERNS_21ColumnDataAppendStateERNS_9DataChunkE
__ZN6duckdb20ColumnDataCollection6AppendERNS_9DataChunkE
__ZN6duckdb20ColumnDataCollection7CombineERS0_
__ZN6duckdb20ColumnDataCollectionC1ERNS_13ClientContextENS_6vectorINS_11LogicalTypeELb1EEENS_23ColumnDataAllocatorTypeE
__ZN6duckdb20ColumnDataCollectionC1ERNS_9AllocatorENS_6vectorINS_11LogicalTypeELb1EEE
__ZN6duckdb20ColumnDataCollectionC1ERS0_
__ZN6duckdb20ColumnDataCollectionD1Ev
__ZN6duckdb20ComparisonExpressionC1ENS_14ExpressionTypeENS_10unique_ptrINS_16ParsedExpressionENSt3__214default_deleteIS3_EELb1EEES7_
__ZN6duckdb20CompressedFileSystem10OnDiskFileERNS_10FileHandleE
__ZN6duckdb20CompressedFileSystem11GetFileSizeERNS_10FileHandleE
__ZN6duckdb20CompressedFileSystem4ReadERNS_10FileHandleEPvx
__ZN6duckdb20CompressedFileSystem5ResetERNS_10FileHandleE
__ZN6duckdb20CompressedFileSystem5WriteERNS_10FileHandleEPvx
__ZN6duckdb20CompressedFileSystem7CanSeekEv
__ZN6duckdb20ConvertVectorToValueENS_6vectorINS_5ValueELb1EEE
__ZN6duckdb20CrossProductRelationC1ENSt3__210shared_ptrINS_8RelationEEES4_NS_11JoinRefTypeE
__ZN6duckdb20DefaultViewGenerator17GetDefaultEntriesEv
__ZN6duckdb20DefaultViewGenerator18CreateDefaultEntryERNS_13ClientContextERKNSt3__212basic_stringIcNS3_11char_traitsIcEENS3_9allocatorIcEEEE
__ZN6duckdb20DefaultViewGeneratorC1ERNS_7CatalogERNS_18SchemaCatalogEntryE
__ZN6duckdb20ExceptionFormatValue17CreateFormatValueINS_11LogicalTypeEEES0_T_
__ZN6duckdb20ExceptionFormatValue17CreateFormatValueINSt3__212basic_stringIcNS2_11char_traitsIcEENS2_9allocatorIcEEEEEES0_T_
__ZN6duckdb20ExceptionFormatValue17CreateFormatValueIPKcEES0_T_
__ZN6duckdb20ExceptionFormatValue17CreateFormatValueIPcEES0_T_
__ZN6duckdb20ExceptionFormatValue17CreateFormatValueIdEES0_T_
__ZN6duckdb20ExceptionFormatValueC1Ex
__ZN6duckdb20GetDatePartSpecifierERKNSt3__212basic_stringIcNS0_11char_traitsIcEENS0_9allocatorIcEEEE
__ZN6duckdb20InMemoryBlockManager10FreeBlocksEv
__ZN6duckdb20InMemoryBlockManager11CreateBlockExPNS_10FileBufferE
__ZN6duckdb20InMemoryBlockManager11IsRootBlockENS_16MetaBlockPointerE
__ZN6duckdb20InMemoryBlockManager11TotalBlocksEv
__ZN6duckdb20InMemoryBlockManager11WriteHeaderENS_14DatabaseHeaderE
__ZN6duckdb20InMemoryBlockManager12ConvertBlockExRNS_10FileBufferE
__ZN6duckdb20InMemoryBlockManager12GetMetaBlockEv
__ZN6duckdb20InMemoryBlockManager14GetFreeBlockIdEv
__ZN6duckdb20InMemoryBlockManager15MarkBlockAsFreeEx
__ZN6duckdb20InMemoryBlockManager19MarkBlockAsModifiedEx
__ZN6duckdb20InMemoryBlockManager27IncreaseBlockReferenceCountEx
__ZN6duckdb20InMemoryBlockManager4ReadERNS_5BlockE
__ZN6duckdb20InMemoryBlockManager5WriteERNS_10FileBufferEx
__ZN6duckdb20InMemoryBlockManagerD0Ev
__ZN6duckdb20IntervalColumnReader10DictionaryENSt3__210shared_ptrINS_16ResizeableBufferEEEy
__ZN6duckdb20IntervalColumnReaderC2ERNS_13ParquetReaderENS_11LogicalTypeERKN14duckdb_parquet6format13SchemaElementEyyy
__ZN6duckdb20IntervalColumnReaderD0Ev
__ZN6duckdb20IntervalColumnWriter10GetRowSizeERNS_6VectorEyRNS_22BasicColumnWriterStateE
__ZN6duckdb20IntervalColumnWriter11WriteVectorERNS_11WriteStreamEPNS_22ColumnWriterStatisticsEPNS_21ColumnWriterPageStateERNS_6VectorEyy
__ZN6duckdb20IntervalColumnWriterD0Ev
__ZN6duckdb20InvalidTypeExceptionC1ERKNSt3__212basic_stringIcNS1_11char_traitsIcEENS1_9allocatorIcEEEE
__ZN6duckdb20PageWriteInformationD2Ev
__ZN6duckdb20ParquetElementStringIRKN14duckdb_parquet6format13ConvertedType4typeEEENS_5ValueEOT_b
__ZN6duckdb20ParquetElementStringIRKN14duckdb_parquet6format19FieldRepetitionType4typeEEENS_5ValueEOT_b
__ZN6duckdb20ParquetElementStringIRKN14duckdb_parquet6format4Type4typeEEENS_5ValueEOT_b
__ZN6duckdb20ParquetWriteBindDataD0Ev
__ZN6duckdb20ParquetWriteBindDataD2Ev
__ZN6duckdb20ParquetWriteFinalizeERNS_13ClientContextERNS_12FunctionDataERNS_18GlobalFunctionDataE
__ZN6duckdb20StandardColumnWriterINS_10dtime_tz_tExNS_21ParquetTimeTZOperatorEE10GetRowSizeERNS_6VectorEyRNS_22BasicColumnWriterStateE
__ZN6duckdb20StandardColumnWriterINS_10dtime_tz_tExNS_21ParquetTimeTZOperatorEE11WriteVectorERNS_11WriteStreamEPNS_22ColumnWriterStatisticsEPNS_21ColumnWriterPageStateERNS_6VectorEyy
__ZN6duckdb20StandardColumnWriterINS_10dtime_tz_tExNS_21ParquetTimeTZOperatorEE20InitializeStatsStateEv
__ZN6duckdb20StandardColumnWriterINS_10dtime_tz_tExNS_21ParquetTimeTZOperatorEED0Ev
__ZN6duckdb20StandardColumnWriterINS_9hugeint_tEdNS_22ParquetHugeintOperatorEE10GetRowSizeERNS_6VectorEyRNS_22BasicColumnWriterStateE
__ZN6duckdb20StandardColumnWriterINS_9hugeint_tEdNS_22ParquetHugeintOperatorEE11WriteVectorERNS_11WriteStreamEPNS_22ColumnWriterStatisticsEPNS_21ColumnWriterPageStateERNS_6VectorEyy
__ZN6duckdb20StandardColumnWriterINS_9hugeint_tEdNS_22ParquetHugeintOperatorEE20InitializeStatsStateEv
__ZN6duckdb20StandardColumnWriterINS_9hugeint_tEdNS_22ParquetHugeintOperatorEED0Ev
__ZN6duckdb20StandardColumnWriterIaiNS_19ParquetCastOperatorEE10GetRowSizeERNS_6VectorEyRNS_22BasicColumnWriterStateE
__ZN6duckdb20StandardColumnWriterIaiNS_19ParquetCastOperatorEE11WriteVectorERNS_11WriteStreamEPNS_22ColumnWriterStatisticsEPNS_21ColumnWriterPageStateERNS_6VectorEyy
__ZN6duckdb20StandardColumnWriterIaiNS_19ParquetCastOperatorEE20InitializeStatsStateEv
__ZN6duckdb20StandardColumnWriterIaiNS_19ParquetCastOperatorEED0Ev
__ZN6duckdb20StandardColumnWriterIddNS_19ParquetCastOperatorEE10GetRowSizeERNS_6VectorEyRNS_22BasicColumnWriterStateE
__ZN6duckdb20StandardColumnWriterIddNS_19ParquetCastOperatorEE11WriteVectorERNS_11WriteStreamEPNS_22ColumnWriterStatisticsEPNS_21ColumnWriterPageStateERNS_6VectorEyy
__ZN6duckdb20StandardColumnWriterIddNS_19ParquetCastOperatorEE20InitializeStatsStateEv
__ZN6duckdb20StandardColumnWriterIddNS_19ParquetCastOperatorEED0Ev
__ZN6duckdb20StandardColumnWriterIffNS_19ParquetCastOperatorEE10GetRowSizeERNS_6VectorEyRNS_22BasicColumnWriterStateE
__ZN6duckdb20StandardColumnWriterIffNS_19ParquetCastOperatorEE11WriteVectorERNS_11WriteStreamEPNS_22ColumnWriterStatisticsEPNS_21ColumnWriterPageStateERNS_6VectorEyy
__ZN6duckdb20StandardColumnWriterIffNS_19ParquetCastOperatorEE20InitializeStatsStateEv
__ZN6duckdb20StandardColumnWriterIffNS_19ParquetCastOperatorEED0Ev
__ZN6duckdb20StandardColumnWriterIhiNS_19ParquetCastOperatorEE10GetRowSizeERNS_6VectorEyRNS_22BasicColumnWriterStateE
__ZN6duckdb20StandardColumnWriterIhiNS_19ParquetCastOperatorEE11WriteVectorERNS_11WriteStreamEPNS_22ColumnWriterStatisticsEPNS_21ColumnWriterPageStateERNS_6VectorEyy
__ZN6duckdb20StandardColumnWriterIhiNS_19ParquetCastOperatorEE20InitializeStatsStateEv
__ZN6duckdb20StandardColumnWriterIhiNS_19ParquetCastOperatorEED0Ev
__ZN6duckdb20StandardColumnWriterIiiNS_19ParquetCastOperatorEE10GetRowSizeERNS_6VectorEyRNS_22BasicColumnWriterStateE
__ZN6duckdb20StandardColumnWriterIiiNS_19ParquetCastOperatorEE11WriteVectorERNS_11WriteStreamEPNS_22ColumnWriterStatisticsEPNS_21ColumnWriterPageStateERNS_6VectorEyy
__ZN6duckdb20StandardColumnWriterIiiNS_19ParquetCastOperatorEE20InitializeStatsStateEv
__ZN6duckdb20StandardColumnWriterIiiNS_19ParquetCastOperatorEED0Ev
__ZN6duckdb20StandardColumnWriterIjjNS_19ParquetCastOperatorEE10GetRowSizeERNS_6VectorEyRNS_22BasicColumnWriterStateE
__ZN6duckdb20StandardColumnWriterIjjNS_19ParquetCastOperatorEE11WriteVectorERNS_11WriteStreamEPNS_22ColumnWriterStatisticsEPNS_21ColumnWriterPageStateERNS_6VectorEyy
__ZN6duckdb20StandardColumnWriterIjjNS_19ParquetCastOperatorEE20InitializeStatsStateEv
__ZN6duckdb20StandardColumnWriterIjjNS_19ParquetCastOperatorEED0Ev
__ZN6duckdb20StandardColumnWriterIsiNS_19ParquetCastOperatorEE10GetRowSizeERNS_6VectorEyRNS_22BasicColumnWriterStateE
__ZN6duckdb20StandardColumnWriterIsiNS_19ParquetCastOperatorEE11WriteVectorERNS_11WriteStreamEPNS_22ColumnWriterStatisticsEPNS_21ColumnWriterPageStateERNS_6VectorEyy
__ZN6duckdb20StandardColumnWriterIsiNS_19ParquetCastOperatorEE20InitializeStatsStateEv
__ZN6duckdb20StandardColumnWriterIsiNS_19ParquetCastOperatorEED0Ev
__ZN6duckdb20StandardColumnWriterItiNS_19ParquetCastOperatorEE10GetRowSizeERNS_6VectorEyRNS_22BasicColumnWriterStateE
__ZN6duckdb20StandardColumnWriterItiNS_19ParquetCastOperatorEE11WriteVectorERNS_11WriteStreamEPNS_22ColumnWriterStatisticsEPNS_21ColumnWriterPageStateERNS_6VectorEyy
__ZN6duckdb20StandardColumnWriterItiNS_19ParquetCastOperatorEE20InitializeStatsStateEv
__ZN6duckdb20StandardColumnWriterItiNS_19ParquetCastOperatorEED0Ev
__ZN6duckdb20StandardColumnWriterIxxNS_19ParquetCastOperatorEE10GetRowSizeERNS_6VectorEyRNS_22BasicColumnWriterStateE
__ZN6duckdb20StandardColumnWriterIxxNS_19ParquetCastOperatorEE11WriteVectorERNS_11WriteStreamEPNS_22ColumnWriterStatisticsEPNS_21ColumnWriterPageStateERNS_6VectorEyy
__ZN6duckdb20StandardColumnWriterIxxNS_19ParquetCastOperatorEE20InitializeStatsStateEv
__ZN6duckdb20StandardColumnWriterIxxNS_19ParquetCastOperatorEED0Ev
__ZN6duckdb20StandardColumnWriterIxxNS_25ParquetTimestampSOperatorEE10GetRowSizeERNS_6VectorEyRNS_22BasicColumnWriterStateE
__ZN6duckdb20StandardColumnWriterIxxNS_25ParquetTimestampSOperatorEE11WriteVectorERNS_11WriteStreamEPNS_22ColumnWriterStatisticsEPNS_21ColumnWriterPageStateERNS_6VectorEyy
__ZN6duckdb20StandardColumnWriterIxxNS_25ParquetTimestampSOperatorEE20InitializeStatsStateEv
__ZN6duckdb20StandardColumnWriterIxxNS_25ParquetTimestampSOperatorEED0Ev
__ZN6duckdb20StandardColumnWriterIxxNS_26ParquetTimestampNSOperatorEE10GetRowSizeERNS_6VectorEyRNS_22BasicColumnWriterStateE
__ZN6duckdb20StandardColumnWriterIxxNS_26ParquetTimestampNSOperatorEE11WriteVectorERNS_11WriteStreamEPNS_22ColumnWriterStatisticsEPNS_21ColumnWriterPageStateERNS_6VectorEyy
__ZN6duckdb20StandardColumnWriterIxxNS_26ParquetTimestampNSOperatorEE20InitializeStatsStateEv
__ZN6duckdb20StandardColumnWriterIxxNS_26ParquetTimestampNSOperatorEED0Ev
__ZN6duckdb20StandardColumnWriterIyyNS_19ParquetCastOperatorEE10GetRowSizeERNS_6VectorEyRNS_22BasicColumnWriterStateE
__ZN6duckdb20StandardColumnWriterIyyNS_19ParquetCastOperatorEE11WriteVectorERNS_11WriteStreamEPNS_22ColumnWriterStatisticsEPNS_21ColumnWriterPageStateERNS_6VectorEyy
__ZN6duckdb20StandardColumnWriterIyyNS_19ParquetCastOperatorEE20InitializeStatsStateEv
__ZN6duckdb20StandardColumnWriterIyyNS_19ParquetCastOperatorEED0Ev
__ZN6duckdb20TRANSACTION_ID_STARTE
__ZN6duckdb20TransactionExceptionC1ERKNSt3__212basic_stringIcNS1_11char_traitsIcEENS1_9allocatorIcEEEE
__ZN6duckdb21BoundUniqueConstraintD0Ev
__ZN6duckdb21BoundUniqueConstraintD2Ev
__ZN6duckdb21ColumnDataAppendStateD2Ev
__ZN6duckdb21ColumnWriterPageStateD2Ev
__ZN6duckdb21ConjunctionExpressionC1ENS_14ExpressionTypeENS_10unique_ptrINS_16ParsedExpressionENSt3__214default_deleteIS3_EELb1EEES7_
__ZN6duckdb21ConjunctionExpressionC1ENS_14ExpressionTypeENS_6vectorINS_10unique_ptrINS_16ParsedExpressionENSt3__214default_deleteIS4_EELb1EEELb1EEE
__ZN6duckdb21InvalidInputExceptionC1ERKNSt3__212basic_stringIcNS1_11char_traitsIcEENS1_9allocatorIcEEEE
__ZN6duckdb21InvalidInputExceptionC2ERKNSt3__212basic_stringIcNS1_11char_traitsIcEENS1_9allocatorIcEEEE
__ZN6duckdb21InvalidInputExceptionC2IJNSt3__212basic_stringIcNS2_11char_traitsIcEENS2_9allocatorIcEEEEEEERKS8_DpT_
__ZN6duckdb21InvalidInputExceptionC2IJNSt3__212basic_stringIcNS2_11char_traitsIcEENS2_9allocatorIcEEEES8_EEERKS8_DpT_
__ZN6duckdb21InvalidInputExceptionC2IJNSt3__212basic_stringIcNS2_11char_traitsIcEENS2_9allocatorIcEEEES8_yS8_EEERKS8_DpT_
__ZN6duckdb21InvalidInputExceptionC2IJhyEEERKNSt3__212basic_stringIcNS2_11char_traitsIcEENS2_9allocatorIcEEEEDpT_
__ZN6duckdb21InvalidInputExceptionC2IJyyyEEERKNSt3__212basic_stringIcNS2_11char_traitsIcEENS2_9allocatorIcEEEEDpT_
__ZN6duckdb21ListColumnWriterStateD0Ev
__ZN6duckdb21ListColumnWriterStateD2Ev
__ZN6duckdb21LogicalTypeIdToStringENS_13LogicalTypeIdE
__ZN6duckdb21ParquetReadLocalStateD0Ev
__ZN6duckdb21ParquetReadLocalStateD2Ev
__ZN6duckdb21ParquetSchemaFunctionD0Ev
__ZN6duckdb21ParquetWriteBatchDataD0Ev
__ZN6duckdb21ParquetWriteBatchDataD2Ev
__ZN6duckdb21PhysicalPlanGenerator10CreatePlanENS_10unique_ptrINS_15LogicalOperatorENSt3__214default_deleteIS2_EELb1EEE
__ZN6duckdb21RowNumberColumnReader14InitializeReadEyRKNS_6vectorIN14duckdb_parquet6format11ColumnChunkELb1EEERN13duckdb_apache6thrift8protocol9TProtocolE
__ZN6duckdb21RowNumberColumnReader16RegisterPrefetchERNS_19ThriftFileTransportEb
__ZN6duckdb21RowNumberColumnReader18GroupRowsAvailableEv
__ZN6duckdb21RowNumberColumnReader19TotalCompressedSizeEv
__ZN6duckdb21RowNumberColumnReader4ReadEyRNSt3__26bitsetILm2048EEEPhS5_RNS_6VectorE
__ZN6duckdb21RowNumberColumnReader4SkipEy
__ZN6duckdb21RowNumberColumnReader5StatsEyRKNS_6vectorIN14duckdb_parquet6format11ColumnChunkELb1EEE
__ZN6duckdb21RowNumberColumnReaderD0Ev
__ZN6duckdb21StringStatisticsState11GetMaxValueEv
__ZN6duckdb21StringStatisticsState11GetMinValueEv
__ZN6duckdb21StringStatisticsState6GetMaxEv
__ZN6duckdb21StringStatisticsState6GetMinEv
__ZN6duckdb21StringStatisticsState6UpdateERKNS_8string_tE
__ZN6duckdb21StringStatisticsStateD0Ev
__ZN6duckdb21StringStatisticsStateD2Ev
__ZN6duckdb21StringWriterPageStateD0Ev
__ZN6duckdb21TemplatedColumnReaderINS_10dtime_tz_tENS_30CallbackParquetValueConversionIxS1_XadL_ZNS_18ParquetIntToTimeTZERKxEEEEE10DictionaryENSt3__210shared_ptrINS_16ResizeableBufferEEEy
__ZN6duckdb21TemplatedColumnReaderINS_10dtime_tz_tENS_30CallbackParquetValueConversionIxS1_XadL_ZNS_18ParquetIntToTimeTZERKxEEEEE12AllocateDictEy
__ZN6duckdb21TemplatedColumnReaderINS_10dtime_tz_tENS_30CallbackParquetValueConversionIxS1_XadL_ZNS_18ParquetIntToTimeTZERKxEEEEE5PlainENSt3__210shared_ptrINS_10ByteBufferEEEPhyRNS7_6bitsetILm2048EEEyRNS_6VectorE
__ZN6duckdb21TemplatedColumnReaderINS_10dtime_tz_tENS_30CallbackParquetValueConversionIxS1_XadL_ZNS_18ParquetIntToTimeTZERKxEEEEE7OffsetsEPjPhyRNSt3__26bitsetILm2048EEEyRNS_6VectorE
__ZN6duckdb21TemplatedColumnReaderINS_10dtime_tz_tENS_30CallbackParquetValueConversionIxS1_XadL_ZNS_18ParquetIntToTimeTZERKxEEEEED0Ev
__ZN6duckdb21TemplatedColumnReaderINS_10dtime_tz_tENS_30CallbackParquetValueConversionIxS1_XadL_ZNS_18ParquetIntToTimeTZERKxEEEEED2Ev
__ZN6duckdb21TemplatedColumnReaderINS_10interval_tENS_23IntervalValueConversionEE10DictionaryENSt3__210shared_ptrINS_16ResizeableBufferEEEy
__ZN6duckdb21TemplatedColumnReaderINS_10interval_tENS_23IntervalValueConversionEE12AllocateDictEy
__ZN6duckdb21TemplatedColumnReaderINS_10interval_tENS_23IntervalValueConversionEE5PlainENSt3__210shared_ptrINS_10ByteBufferEEEPhyRNS4_6bitsetILm2048EEEyRNS_6VectorE
__ZN6duckdb21TemplatedColumnReaderINS_10interval_tENS_23IntervalValueConversionEE7OffsetsEPjPhyRNSt3__26bitsetILm2048EEEyRNS_6VectorE
__ZN6duckdb21TemplatedColumnReaderINS_10interval_tENS_23IntervalValueConversionEED0Ev
__ZN6duckdb21TemplatedColumnReaderINS_10interval_tENS_23IntervalValueConversionEED2Ev
__ZN6duckdb21TemplatedColumnReaderINS_11timestamp_tENS_30CallbackParquetValueConversionINS_5Int96ES1_XadL_ZNS_26ImpalaTimestampToTimestampERKS3_EEEEE10DictionaryENSt3__210shared_ptrINS_16ResizeableBufferEEEy
__ZN6duckdb21TemplatedColumnReaderINS_11timestamp_tENS_30CallbackParquetValueConversionINS_5Int96ES1_XadL_ZNS_26ImpalaTimestampToTimestampERKS3_EEEEE12AllocateDictEy
__ZN6duckdb21TemplatedColumnReaderINS_11timestamp_tENS_30CallbackParquetValueConversionINS_5Int96ES1_XadL_ZNS_26ImpalaTimestampToTimestampERKS3_EEEEE5PlainENSt3__210shared_ptrINS_10ByteBufferEEEPhyRNS8_6bitsetILm2048EEEyRNS_6VectorE
__ZN6duckdb21TemplatedColumnReaderINS_11timestamp_tENS_30CallbackParquetValueConversionINS_5Int96ES1_XadL_ZNS_26ImpalaTimestampToTimestampERKS3_EEEEE7OffsetsEPjPhyRNSt3__26bitsetILm2048EEEyRNS_6VectorE
__ZN6duckdb21TemplatedColumnReaderINS_11timestamp_tENS_30CallbackParquetValueConversionINS_5Int96ES1_XadL_ZNS_26ImpalaTimestampToTimestampERKS3_EEEEED0Ev
__ZN6duckdb21TemplatedColumnReaderINS_11timestamp_tENS_30CallbackParquetValueConversionINS_5Int96ES1_XadL_ZNS_26ImpalaTimestampToTimestampERKS3_EEEEED2Ev
__ZN6duckdb21TemplatedColumnReaderINS_11timestamp_tENS_30CallbackParquetValueConversionIxS1_XadL_ZNS_29ParquetTimestampMsToTimestampERKxEEEEE10DictionaryENSt3__210shared_ptrINS_16ResizeableBufferEEEy
__ZN6duckdb21TemplatedColumnReaderINS_11timestamp_tENS_30CallbackParquetValueConversionIxS1_XadL_ZNS_29ParquetTimestampMsToTimestampERKxEEEEE12AllocateDictEy
__ZN6duckdb21TemplatedColumnReaderINS_11timestamp_tENS_30CallbackParquetValueConversionIxS1_XadL_ZNS_29ParquetTimestampMsToTimestampERKxEEEEE5PlainENSt3__210shared_ptrINS_10ByteBufferEEEPhyRNS7_6bitsetILm2048EEEyRNS_6VectorE
__ZN6duckdb21TemplatedColumnReaderINS_11timestamp_tENS_30CallbackParquetValueConversionIxS1_XadL_ZNS_29ParquetTimestampMsToTimestampERKxEEEEE7OffsetsEPjPhyRNSt3__26bitsetILm2048EEEyRNS_6VectorE
__ZN6duckdb21TemplatedColumnReaderINS_11timestamp_tENS_30CallbackParquetValueConversionIxS1_XadL_ZNS_29ParquetTimestampMsToTimestampERKxEEEEED0Ev
__ZN6duckdb21TemplatedColumnReaderINS_11timestamp_tENS_30CallbackParquetValueConversionIxS1_XadL_ZNS_29ParquetTimestampMsToTimestampERKxEEEEED2Ev
__ZN6duckdb21TemplatedColumnReaderINS_11timestamp_tENS_30CallbackParquetValueConversionIxS1_XadL_ZNS_29ParquetTimestampNsToTimestampERKxEEEEE10DictionaryENSt3__210shared_ptrINS_16ResizeableBufferEEEy
__ZN6duckdb21TemplatedColumnReaderINS_11timestamp_tENS_30CallbackParquetValueConversionIxS1_XadL_ZNS_29ParquetTimestampNsToTimestampERKxEEEEE12AllocateDictEy
__ZN6duckdb21TemplatedColumnReaderINS_11timestamp_tENS_30CallbackParquetValueConversionIxS1_XadL_ZNS_29ParquetTimestampNsToTimestampERKxEEEEE5PlainENSt3__210shared_ptrINS_10ByteBufferEEEPhyRNS7_6bitsetILm2048EEEyRNS_6VectorE
__ZN6duckdb21TemplatedColumnReaderINS_11timestamp_tENS_30CallbackParquetValueConversionIxS1_XadL_ZNS_29ParquetTimestampNsToTimestampERKxEEEEE7OffsetsEPjPhyRNSt3__26bitsetILm2048EEEyRNS_6VectorE
__ZN6duckdb21TemplatedColumnReaderINS_11timestamp_tENS_30CallbackParquetValueConversionIxS1_XadL_ZNS_29ParquetTimestampNsToTimestampERKxEEEEED0Ev
__ZN6duckdb21TemplatedColumnReaderINS_11timestamp_tENS_30CallbackParquetValueConversionIxS1_XadL_ZNS_29ParquetTimestampNsToTimestampERKxEEEEED2Ev
__ZN6duckdb21TemplatedColumnReaderINS_11timestamp_tENS_30CallbackParquetValueConversionIxS1_XadL_ZNS_33ParquetTimestampMicrosToTimestampERKxEEEEE10DictionaryENSt3__210shared_ptrINS_16ResizeableBufferEEEy
__ZN6duckdb21TemplatedColumnReaderINS_11timestamp_tENS_30CallbackParquetValueConversionIxS1_XadL_ZNS_33ParquetTimestampMicrosToTimestampERKxEEEEE12AllocateDictEy
__ZN6duckdb21TemplatedColumnReaderINS_11timestamp_tENS_30CallbackParquetValueConversionIxS1_XadL_ZNS_33ParquetTimestampMicrosToTimestampERKxEEEEE5PlainENSt3__210shared_ptrINS_10ByteBufferEEEPhyRNS7_6bitsetILm2048EEEyRNS_6VectorE
__ZN6duckdb21TemplatedColumnReaderINS_11timestamp_tENS_30CallbackParquetValueConversionIxS1_XadL_ZNS_33ParquetTimestampMicrosToTimestampERKxEEEEE7OffsetsEPjPhyRNSt3__26bitsetILm2048EEEyRNS_6VectorE
__ZN6duckdb21TemplatedColumnReaderINS_11timestamp_tENS_30CallbackParquetValueConversionIxS1_XadL_ZNS_33ParquetTimestampMicrosToTimestampERKxEEEEED0Ev
__ZN6duckdb21TemplatedColumnReaderINS_11timestamp_tENS_30CallbackParquetValueConversionIxS1_XadL_ZNS_33ParquetTimestampMicrosToTimestampERKxEEEEED2Ev
__ZN6duckdb21TemplatedColumnReaderINS_6date_tENS_30CallbackParquetValueConversionIiS1_XadL_ZNS_16ParquetIntToDateERKiEEEEE10DictionaryENSt3__210shared_ptrINS_16ResizeableBufferEEEy
__ZN6duckdb21TemplatedColumnReaderINS_6date_tENS_30CallbackParquetValueConversionIiS1_XadL_ZNS_16ParquetIntToDateERKiEEEEE12AllocateDictEy
__ZN6duckdb21TemplatedColumnReaderINS_6date_tENS_30CallbackParquetValueConversionIiS1_XadL_ZNS_16ParquetIntToDateERKiEEEEE5PlainENSt3__210shared_ptrINS_10ByteBufferEEEPhyRNS7_6bitsetILm2048EEEyRNS_6VectorE
__ZN6duckdb21TemplatedColumnReaderINS_6date_tENS_30CallbackParquetValueConversionIiS1_XadL_ZNS_16ParquetIntToDateERKiEEEEE7OffsetsEPjPhyRNSt3__26bitsetILm2048EEEyRNS_6VectorE
__ZN6duckdb21TemplatedColumnReaderINS_6date_tENS_30CallbackParquetValueConversionIiS1_XadL_ZNS_16ParquetIntToDateERKiEEEEED0Ev
__ZN6duckdb21TemplatedColumnReaderINS_6date_tENS_30CallbackParquetValueConversionIiS1_XadL_ZNS_16ParquetIntToDateERKiEEEEED2Ev
__ZN6duckdb21TemplatedColumnReaderINS_7dtime_tENS_30CallbackParquetValueConversionIiS1_XadL_ZNS_18ParquetIntToTimeMsERKiEEEEE10DictionaryENSt3__210shared_ptrINS_16ResizeableBufferEEEy
__ZN6duckdb21TemplatedColumnReaderINS_7dtime_tENS_30CallbackParquetValueConversionIiS1_XadL_ZNS_18ParquetIntToTimeMsERKiEEEEE12AllocateDictEy
__ZN6duckdb21TemplatedColumnReaderINS_7dtime_tENS_30CallbackParquetValueConversionIiS1_XadL_ZNS_18ParquetIntToTimeMsERKiEEEEE5PlainENSt3__210shared_ptrINS_10ByteBufferEEEPhyRNS7_6bitsetILm2048EEEyRNS_6VectorE
__ZN6duckdb21TemplatedColumnReaderINS_7dtime_tENS_30CallbackParquetValueConversionIiS1_XadL_ZNS_18ParquetIntToTimeMsERKiEEEEE7OffsetsEPjPhyRNSt3__26bitsetILm2048EEEyRNS_6VectorE
__ZN6duckdb21TemplatedColumnReaderINS_7dtime_tENS_30CallbackParquetValueConversionIiS1_XadL_ZNS_18ParquetIntToTimeMsERKiEEEEED0Ev
__ZN6duckdb21TemplatedColumnReaderINS_7dtime_tENS_30CallbackParquetValueConversionIiS1_XadL_ZNS_18ParquetIntToTimeMsERKiEEEEED2Ev
__ZN6duckdb21TemplatedColumnReaderINS_7dtime_tENS_30CallbackParquetValueConversionIxS1_XadL_ZNS_16ParquetIntToTimeERKxEEEEE10DictionaryENSt3__210shared_ptrINS_16ResizeableBufferEEEy
__ZN6duckdb21TemplatedColumnReaderINS_7dtime_tENS_30CallbackParquetValueConversionIxS1_XadL_ZNS_16ParquetIntToTimeERKxEEEEE12AllocateDictEy
__ZN6duckdb21TemplatedColumnReaderINS_7dtime_tENS_30CallbackParquetValueConversionIxS1_XadL_ZNS_16ParquetIntToTimeERKxEEEEE5PlainENSt3__210shared_ptrINS_10ByteBufferEEEPhyRNS7_6bitsetILm2048EEEyRNS_6VectorE
__ZN6duckdb21TemplatedColumnReaderINS_7dtime_tENS_30CallbackParquetValueConversionIxS1_XadL_ZNS_16ParquetIntToTimeERKxEEEEE7OffsetsEPjPhyRNSt3__26bitsetILm2048EEEyRNS_6VectorE
__ZN6duckdb21TemplatedColumnReaderINS_7dtime_tENS_30CallbackParquetValueConversionIxS1_XadL_ZNS_16ParquetIntToTimeERKxEEEEED0Ev
__ZN6duckdb21TemplatedColumnReaderINS_7dtime_tENS_30CallbackParquetValueConversionIxS1_XadL_ZNS_16ParquetIntToTimeERKxEEEEED2Ev
__ZN6duckdb21TemplatedColumnReaderINS_7dtime_tENS_30CallbackParquetValueConversionIxS1_XadL_ZNS_18ParquetIntToTimeNsERKxEEEEE10DictionaryENSt3__210shared_ptrINS_16ResizeableBufferEEEy
__ZN6duckdb21TemplatedColumnReaderINS_7dtime_tENS_30CallbackParquetValueConversionIxS1_XadL_ZNS_18ParquetIntToTimeNsERKxEEEEE12AllocateDictEy
__ZN6duckdb21TemplatedColumnReaderINS_7dtime_tENS_30CallbackParquetValueConversionIxS1_XadL_ZNS_18ParquetIntToTimeNsERKxEEEEE5PlainENSt3__210shared_ptrINS_10ByteBufferEEEPhyRNS7_6bitsetILm2048EEEyRNS_6VectorE
__ZN6duckdb21TemplatedColumnReaderINS_7dtime_tENS_30CallbackParquetValueConversionIxS1_XadL_ZNS_18ParquetIntToTimeNsERKxEEEEE7OffsetsEPjPhyRNSt3__26bitsetILm2048EEEyRNS_6VectorE
__ZN6duckdb21TemplatedColumnReaderINS_7dtime_tENS_30CallbackParquetValueConversionIxS1_XadL_ZNS_18ParquetIntToTimeNsERKxEEEEED0Ev
__ZN6duckdb21TemplatedColumnReaderINS_7dtime_tENS_30CallbackParquetValueConversionIxS1_XadL_ZNS_18ParquetIntToTimeNsERKxEEEEED2Ev
__ZN6duckdb21TemplatedColumnReaderINS_8string_tENS_28StringParquetValueConversionEE10DictionaryENSt3__210shared_ptrINS_16ResizeableBufferEEEy
__ZN6duckdb21TemplatedColumnReaderINS_8string_tENS_28StringParquetValueConversionEE5PlainENSt3__210shared_ptrINS_10ByteBufferEEEPhyRNS4_6bitsetILm2048EEEyRNS_6VectorE
__ZN6duckdb21TemplatedColumnReaderINS_8string_tENS_28StringParquetValueConversionEE7OffsetsEPjPhyRNSt3__26bitsetILm2048EEEyRNS_6VectorE
__ZN6duckdb21TemplatedColumnReaderINS_8string_tENS_28StringParquetValueConversionEED0Ev
__ZN6duckdb21TemplatedColumnReaderINS_8string_tENS_28StringParquetValueConversionEED2Ev
__ZN6duckdb21TemplatedColumnReaderINS_9hugeint_tENS_19UUIDValueConversionEE10DictionaryENSt3__210shared_ptrINS_16ResizeableBufferEEEy
__ZN6duckdb21TemplatedColumnReaderINS_9hugeint_tENS_19UUIDValueConversionEE12AllocateDictEy
__ZN6duckdb21TemplatedColumnReaderINS_9hugeint_tENS_19UUIDValueConversionEE5PlainENSt3__210shared_ptrINS_10ByteBufferEEEPhyRNS4_6bitsetILm2048EEEyRNS_6VectorE
__ZN6duckdb21TemplatedColumnReaderINS_9hugeint_tENS_19UUIDValueConversionEE7OffsetsEPjPhyRNSt3__26bitsetILm2048EEEyRNS_6VectorE
__ZN6duckdb21TemplatedColumnReaderINS_9hugeint_tENS_19UUIDValueConversionEED0Ev
__ZN6duckdb21TemplatedColumnReaderINS_9hugeint_tENS_19UUIDValueConversionEED2Ev
__ZN6duckdb21TemplatedColumnReaderINS_9hugeint_tENS_29DecimalParquetValueConversionIS1_Lb0EEEE10DictionaryENSt3__210shared_ptrINS_16ResizeableBufferEEEy
__ZN6duckdb21TemplatedColumnReaderINS_9hugeint_tENS_29DecimalParquetValueConversionIS1_Lb0EEEE12AllocateDictEy
__ZN6duckdb21TemplatedColumnReaderINS_9hugeint_tENS_29DecimalParquetValueConversionIS1_Lb0EEEE5PlainENSt3__210shared_ptrINS_10ByteBufferEEEPhyRNS5_6bitsetILm2048EEEyRNS_6VectorE
__ZN6duckdb21TemplatedColumnReaderINS_9hugeint_tENS_29DecimalParquetValueConversionIS1_Lb0EEEE7OffsetsEPjPhyRNSt3__26bitsetILm2048EEEyRNS_6VectorE
__ZN6duckdb21TemplatedColumnReaderINS_9hugeint_tENS_29DecimalParquetValueConversionIS1_Lb0EEEED0Ev
__ZN6duckdb21TemplatedColumnReaderINS_9hugeint_tENS_29DecimalParquetValueConversionIS1_Lb0EEEED2Ev
__ZN6duckdb21TemplatedColumnReaderINS_9hugeint_tENS_29DecimalParquetValueConversionIS1_Lb1EEEE10DictionaryENSt3__210shared_ptrINS_16ResizeableBufferEEEy
__ZN6duckdb21TemplatedColumnReaderINS_9hugeint_tENS_29DecimalParquetValueConversionIS1_Lb1EEEE12AllocateDictEy
__ZN6duckdb21TemplatedColumnReaderINS_9hugeint_tENS_29DecimalParquetValueConversionIS1_Lb1EEEE5PlainENSt3__210shared_ptrINS_10ByteBufferEEEPhyRNS5_6bitsetILm2048EEEyRNS_6VectorE
__ZN6duckdb21TemplatedColumnReaderINS_9hugeint_tENS_29DecimalParquetValueConversionIS1_Lb1EEEE7OffsetsEPjPhyRNSt3__26bitsetILm2048EEEyRNS_6VectorE
__ZN6duckdb21TemplatedColumnReaderINS_9hugeint_tENS_29DecimalParquetValueConversionIS1_Lb1EEEED0Ev
__ZN6duckdb21TemplatedColumnReaderINS_9hugeint_tENS_29DecimalParquetValueConversionIS1_Lb1EEEED2Ev
__ZN6duckdb21TemplatedColumnReaderIaNS_31TemplatedParquetValueConversionIiEEE10DictionaryENSt3__210shared_ptrINS_16ResizeableBufferEEEy
__ZN6duckdb21TemplatedColumnReaderIaNS_31TemplatedParquetValueConversionIiEEE5PlainENSt3__210shared_ptrINS_10ByteBufferEEEPhyRNS4_6bitsetILm2048EEEyRNS_6VectorE
__ZN6duckdb21TemplatedColumnReaderIaNS_31TemplatedParquetValueConversionIiEEE7OffsetsEPjPhyRNSt3__26bitsetILm2048EEEyRNS_6VectorE
__ZN6duckdb21TemplatedColumnReaderIaNS_31TemplatedParquetValueConversionIiEEED0Ev
__ZN6duckdb21TemplatedColumnReaderIaNS_31TemplatedParquetValueConversionIiEEED2Ev
__ZN6duckdb21TemplatedColumnReaderIbNS_29BooleanParquetValueConversionEE10DictionaryENSt3__210shared_ptrINS_16ResizeableBufferEEEy
__ZN6duckdb21TemplatedColumnReaderIbNS_29BooleanParquetValueConversionEE5PlainENSt3__210shared_ptrINS_10ByteBufferEEEPhyRNS3_6bitsetILm2048EEEyRNS_6VectorE
__ZN6duckdb21TemplatedColumnReaderIbNS_29BooleanParquetValueConversionEE7OffsetsEPjPhyRNSt3__26bitsetILm2048EEEyRNS_6VectorE
__ZN6duckdb21TemplatedColumnReaderIbNS_29BooleanParquetValueConversionEED0Ev
__ZN6duckdb21TemplatedColumnReaderIbNS_29BooleanParquetValueConversionEED2Ev
__ZN6duckdb21TemplatedColumnReaderIdNS_31TemplatedParquetValueConversionIdEEE10DictionaryENSt3__210shared_ptrINS_16ResizeableBufferEEEy
__ZN6duckdb21TemplatedColumnReaderIdNS_31TemplatedParquetValueConversionIdEEE5PlainENSt3__210shared_ptrINS_10ByteBufferEEEPhyRNS4_6bitsetILm2048EEEyRNS_6VectorE
__ZN6duckdb21TemplatedColumnReaderIdNS_31TemplatedParquetValueConversionIdEEE7OffsetsEPjPhyRNSt3__26bitsetILm2048EEEyRNS_6VectorE
__ZN6duckdb21TemplatedColumnReaderIdNS_31TemplatedParquetValueConversionIdEEED0Ev
__ZN6duckdb21TemplatedColumnReaderIdNS_31TemplatedParquetValueConversionIdEEED2Ev
__ZN6duckdb21TemplatedColumnReaderIfNS_31TemplatedParquetValueConversionIfEEE10DictionaryENSt3__210shared_ptrINS_16ResizeableBufferEEEy
__ZN6duckdb21TemplatedColumnReaderIfNS_31TemplatedParquetValueConversionIfEEE5PlainENSt3__210shared_ptrINS_10ByteBufferEEEPhyRNS4_6bitsetILm2048EEEyRNS_6VectorE
__ZN6duckdb21TemplatedColumnReaderIfNS_31TemplatedParquetValueConversionIfEEE7OffsetsEPjPhyRNSt3__26bitsetILm2048EEEyRNS_6VectorE
__ZN6duckdb21TemplatedColumnReaderIfNS_31TemplatedParquetValueConversionIfEEED0Ev
__ZN6duckdb21TemplatedColumnReaderIfNS_31TemplatedParquetValueConversionIfEEED2Ev
__ZN6duckdb21TemplatedColumnReaderIhNS_31TemplatedParquetValueConversionIjEEE10DictionaryENSt3__210shared_ptrINS_16ResizeableBufferEEEy
__ZN6duckdb21TemplatedColumnReaderIhNS_31TemplatedParquetValueConversionIjEEE5PlainENSt3__210shared_ptrINS_10ByteBufferEEEPhyRNS4_6bitsetILm2048EEEyRNS_6VectorE
__ZN6duckdb21TemplatedColumnReaderIhNS_31TemplatedParquetValueConversionIjEEE7OffsetsEPjPhyRNSt3__26bitsetILm2048EEEyRNS_6VectorE
__ZN6duckdb21TemplatedColumnReaderIhNS_31TemplatedParquetValueConversionIjEEED0Ev
__ZN6duckdb21TemplatedColumnReaderIhNS_31TemplatedParquetValueConversionIjEEED2Ev
__ZN6duckdb21TemplatedColumnReaderIiNS_29DecimalParquetValueConversionIiLb0EEEE10DictionaryENSt3__210shared_ptrINS_16ResizeableBufferEEEy
__ZN6duckdb21TemplatedColumnReaderIiNS_29DecimalParquetValueConversionIiLb0EEEE12AllocateDictEy
__ZN6duckdb21TemplatedColumnReaderIiNS_29DecimalParquetValueConversionIiLb0EEEE5PlainENSt3__210shared_ptrINS_10ByteBufferEEEPhyRNS4_6bitsetILm2048EEEyRNS_6VectorE
__ZN6duckdb21TemplatedColumnReaderIiNS_29DecimalParquetValueConversionIiLb0EEEE7OffsetsEPjPhyRNSt3__26bitsetILm2048EEEyRNS_6VectorE
__ZN6duckdb21TemplatedColumnReaderIiNS_29DecimalParquetValueConversionIiLb0EEEED0Ev
__ZN6duckdb21TemplatedColumnReaderIiNS_29DecimalParquetValueConversionIiLb0EEEED2Ev
__ZN6duckdb21TemplatedColumnReaderIiNS_29DecimalParquetValueConversionIiLb1EEEE10DictionaryENSt3__210shared_ptrINS_16ResizeableBufferEEEy
__ZN6duckdb21TemplatedColumnReaderIiNS_29DecimalParquetValueConversionIiLb1EEEE12AllocateDictEy
__ZN6duckdb21TemplatedColumnReaderIiNS_29DecimalParquetValueConversionIiLb1EEEE5PlainENSt3__210shared_ptrINS_10ByteBufferEEEPhyRNS4_6bitsetILm2048EEEyRNS_6VectorE
__ZN6duckdb21TemplatedColumnReaderIiNS_29DecimalParquetValueConversionIiLb1EEEE7OffsetsEPjPhyRNSt3__26bitsetILm2048EEEyRNS_6VectorE
__ZN6duckdb21TemplatedColumnReaderIiNS_29DecimalParquetValueConversionIiLb1EEEED0Ev
__ZN6duckdb21TemplatedColumnReaderIiNS_29DecimalParquetValueConversionIiLb1EEEED2Ev
__ZN6duckdb21TemplatedColumnReaderIiNS_31TemplatedParquetValueConversionIiEEE10DictionaryENSt3__210shared_ptrINS_16ResizeableBufferEEEy
__ZN6duckdb21TemplatedColumnReaderIiNS_31TemplatedParquetValueConversionIiEEE5PlainENSt3__210shared_ptrINS_10ByteBufferEEEPhyRNS4_6bitsetILm2048EEEyRNS_6VectorE
__ZN6duckdb21TemplatedColumnReaderIiNS_31TemplatedParquetValueConversionIiEEE7OffsetsEPjPhyRNSt3__26bitsetILm2048EEEyRNS_6VectorE
__ZN6duckdb21TemplatedColumnReaderIiNS_31TemplatedParquetValueConversionIiEEED0Ev
__ZN6duckdb21TemplatedColumnReaderIiNS_31TemplatedParquetValueConversionIiEEED2Ev
__ZN6duckdb21TemplatedColumnReaderIiNS_31TemplatedParquetValueConversionIxEEE10DictionaryENSt3__210shared_ptrINS_16ResizeableBufferEEEy
__ZN6duckdb21TemplatedColumnReaderIiNS_31TemplatedParquetValueConversionIxEEE5PlainENSt3__210shared_ptrINS_10ByteBufferEEEPhyRNS4_6bitsetILm2048EEEyRNS_6VectorE
__ZN6duckdb21TemplatedColumnReaderIiNS_31TemplatedParquetValueConversionIxEEE7OffsetsEPjPhyRNSt3__26bitsetILm2048EEEyRNS_6VectorE
__ZN6duckdb21TemplatedColumnReaderIiNS_31TemplatedParquetValueConversionIxEEED0Ev
__ZN6duckdb21TemplatedColumnReaderIiNS_31TemplatedParquetValueConversionIxEEED2Ev
__ZN6duckdb21TemplatedColumnReaderIjNS_31TemplatedParquetValueConversionIjEEE10DictionaryENSt3__210shared_ptrINS_16ResizeableBufferEEEy
__ZN6duckdb21TemplatedColumnReaderIjNS_31TemplatedParquetValueConversionIjEEE5PlainENSt3__210shared_ptrINS_10ByteBufferEEEPhyRNS4_6bitsetILm2048EEEyRNS_6VectorE
__ZN6duckdb21TemplatedColumnReaderIjNS_31TemplatedParquetValueConversionIjEEE7OffsetsEPjPhyRNSt3__26bitsetILm2048EEEyRNS_6VectorE
__ZN6duckdb21TemplatedColumnReaderIjNS_31TemplatedParquetValueConversionIjEEED0Ev
__ZN6duckdb21TemplatedColumnReaderIjNS_31TemplatedParquetValueConversionIjEEED2Ev
__ZN6duckdb21TemplatedColumnReaderIsNS_29DecimalParquetValueConversionIsLb0EEEE10DictionaryENSt3__210shared_ptrINS_16ResizeableBufferEEEy
__ZN6duckdb21TemplatedColumnReaderIsNS_29DecimalParquetValueConversionIsLb0EEEE12AllocateDictEy
__ZN6duckdb21TemplatedColumnReaderIsNS_29DecimalParquetValueConversionIsLb0EEEE5PlainENSt3__210shared_ptrINS_10ByteBufferEEEPhyRNS4_6bitsetILm2048EEEyRNS_6VectorE
__ZN6duckdb21TemplatedColumnReaderIsNS_29DecimalParquetValueConversionIsLb0EEEE7OffsetsEPjPhyRNSt3__26bitsetILm2048EEEyRNS_6VectorE
__ZN6duckdb21TemplatedColumnReaderIsNS_29DecimalParquetValueConversionIsLb0EEEED0Ev
__ZN6duckdb21TemplatedColumnReaderIsNS_29DecimalParquetValueConversionIsLb0EEEED2Ev
__ZN6duckdb21TemplatedColumnReaderIsNS_29DecimalParquetValueConversionIsLb1EEEE10DictionaryENSt3__210shared_ptrINS_16ResizeableBufferEEEy
__ZN6duckdb21TemplatedColumnReaderIsNS_29DecimalParquetValueConversionIsLb1EEEE12AllocateDictEy
__ZN6duckdb21TemplatedColumnReaderIsNS_29DecimalParquetValueConversionIsLb1EEEE5PlainENSt3__210shared_ptrINS_10ByteBufferEEEPhyRNS4_6bitsetILm2048EEEyRNS_6VectorE
__ZN6duckdb21TemplatedColumnReaderIsNS_29DecimalParquetValueConversionIsLb1EEEE7OffsetsEPjPhyRNSt3__26bitsetILm2048EEEyRNS_6VectorE
__ZN6duckdb21TemplatedColumnReaderIsNS_29DecimalParquetValueConversionIsLb1EEEED0Ev
__ZN6duckdb21TemplatedColumnReaderIsNS_29DecimalParquetValueConversionIsLb1EEEED2Ev
__ZN6duckdb21TemplatedColumnReaderIsNS_31TemplatedParquetValueConversionIiEEE10DictionaryENSt3__210shared_ptrINS_16ResizeableBufferEEEy
__ZN6duckdb21TemplatedColumnReaderIsNS_31TemplatedParquetValueConversionIiEEE5PlainENSt3__210shared_ptrINS_10ByteBufferEEEPhyRNS4_6bitsetILm2048EEEyRNS_6VectorE
__ZN6duckdb21TemplatedColumnReaderIsNS_31TemplatedParquetValueConversionIiEEE7OffsetsEPjPhyRNSt3__26bitsetILm2048EEEyRNS_6VectorE
__ZN6duckdb21TemplatedColumnReaderIsNS_31TemplatedParquetValueConversionIiEEED0Ev
__ZN6duckdb21TemplatedColumnReaderIsNS_31TemplatedParquetValueConversionIiEEED2Ev
__ZN6duckdb21TemplatedColumnReaderIsNS_31TemplatedParquetValueConversionIxEEE10DictionaryENSt3__210shared_ptrINS_16ResizeableBufferEEEy
__ZN6duckdb21TemplatedColumnReaderIsNS_31TemplatedParquetValueConversionIxEEE5PlainENSt3__210shared_ptrINS_10ByteBufferEEEPhyRNS4_6bitsetILm2048EEEyRNS_6VectorE
__ZN6duckdb21TemplatedColumnReaderIsNS_31TemplatedParquetValueConversionIxEEE7OffsetsEPjPhyRNSt3__26bitsetILm2048EEEyRNS_6VectorE
__ZN6duckdb21TemplatedColumnReaderIsNS_31TemplatedParquetValueConversionIxEEED0Ev
__ZN6duckdb21TemplatedColumnReaderIsNS_31TemplatedParquetValueConversionIxEEED2Ev
__ZN6duckdb21TemplatedColumnReaderItNS_31TemplatedParquetValueConversionIjEEE10DictionaryENSt3__210shared_ptrINS_16ResizeableBufferEEEy
__ZN6duckdb21TemplatedColumnReaderItNS_31TemplatedParquetValueConversionIjEEE5PlainENSt3__210shared_ptrINS_10ByteBufferEEEPhyRNS4_6bitsetILm2048EEEyRNS_6VectorE
__ZN6duckdb21TemplatedColumnReaderItNS_31TemplatedParquetValueConversionIjEEE7OffsetsEPjPhyRNSt3__26bitsetILm2048EEEyRNS_6VectorE
__ZN6duckdb21TemplatedColumnReaderItNS_31TemplatedParquetValueConversionIjEEED0Ev
__ZN6duckdb21TemplatedColumnReaderItNS_31TemplatedParquetValueConversionIjEEED2Ev
__ZN6duckdb21TemplatedColumnReaderIxNS_29DecimalParquetValueConversionIxLb0EEEE10DictionaryENSt3__210shared_ptrINS_16ResizeableBufferEEEy
__ZN6duckdb21TemplatedColumnReaderIxNS_29DecimalParquetValueConversionIxLb0EEEE12AllocateDictEy
__ZN6duckdb21TemplatedColumnReaderIxNS_29DecimalParquetValueConversionIxLb0EEEE5PlainENSt3__210shared_ptrINS_10ByteBufferEEEPhyRNS4_6bitsetILm2048EEEyRNS_6VectorE
__ZN6duckdb21TemplatedColumnReaderIxNS_29DecimalParquetValueConversionIxLb0EEEE7OffsetsEPjPhyRNSt3__26bitsetILm2048EEEyRNS_6VectorE
__ZN6duckdb21TemplatedColumnReaderIxNS_29DecimalParquetValueConversionIxLb0EEEED0Ev
__ZN6duckdb21TemplatedColumnReaderIxNS_29DecimalParquetValueConversionIxLb0EEEED2Ev
__ZN6duckdb21TemplatedColumnReaderIxNS_29DecimalParquetValueConversionIxLb1EEEE10DictionaryENSt3__210shared_ptrINS_16ResizeableBufferEEEy
__ZN6duckdb21TemplatedColumnReaderIxNS_29DecimalParquetValueConversionIxLb1EEEE12AllocateDictEy
__ZN6duckdb21TemplatedColumnReaderIxNS_29DecimalParquetValueConversionIxLb1EEEE5PlainENSt3__210shared_ptrINS_10ByteBufferEEEPhyRNS4_6bitsetILm2048EEEyRNS_6VectorE
__ZN6duckdb21TemplatedColumnReaderIxNS_29DecimalParquetValueConversionIxLb1EEEE7OffsetsEPjPhyRNSt3__26bitsetILm2048EEEyRNS_6VectorE
__ZN6duckdb21TemplatedColumnReaderIxNS_29DecimalParquetValueConversionIxLb1EEEED0Ev
__ZN6duckdb21TemplatedColumnReaderIxNS_29DecimalParquetValueConversionIxLb1EEEED2Ev
__ZN6duckdb21TemplatedColumnReaderIxNS_31TemplatedParquetValueConversionIiEEE10DictionaryENSt3__210shared_ptrINS_16ResizeableBufferEEEy
__ZN6duckdb21TemplatedColumnReaderIxNS_31TemplatedParquetValueConversionIiEEE5PlainENSt3__210shared_ptrINS_10ByteBufferEEEPhyRNS4_6bitsetILm2048EEEyRNS_6VectorE
__ZN6duckdb21TemplatedColumnReaderIxNS_31TemplatedParquetValueConversionIiEEE7OffsetsEPjPhyRNSt3__26bitsetILm2048EEEyRNS_6VectorE
__ZN6duckdb21TemplatedColumnReaderIxNS_31TemplatedParquetValueConversionIiEEED0Ev
__ZN6duckdb21TemplatedColumnReaderIxNS_31TemplatedParquetValueConversionIiEEED2Ev
__ZN6duckdb21TemplatedColumnReaderIxNS_31TemplatedParquetValueConversionIxEEE10DictionaryENSt3__210shared_ptrINS_16ResizeableBufferEEEy
__ZN6duckdb21TemplatedColumnReaderIxNS_31TemplatedParquetValueConversionIxEEE5PlainENSt3__210shared_ptrINS_10ByteBufferEEEPhyRNS4_6bitsetILm2048EEEyRNS_6VectorE
__ZN6duckdb21TemplatedColumnReaderIxNS_31TemplatedParquetValueConversionIxEEE7OffsetsEPjPhyRNSt3__26bitsetILm2048EEEyRNS_6VectorE
__ZN6duckdb21TemplatedColumnReaderIxNS_31TemplatedParquetValueConversionIxEEED0Ev
__ZN6duckdb21TemplatedColumnReaderIxNS_31TemplatedParquetValueConversionIxEEED2Ev
__ZN6duckdb21TemplatedColumnReaderIyNS_31TemplatedParquetValueConversionIyEEE10DictionaryENSt3__210shared_ptrINS_16ResizeableBufferEEEy
__ZN6duckdb21TemplatedColumnReaderIyNS_31TemplatedParquetValueConversionIyEEE5PlainENSt3__210shared_ptrINS_10ByteBufferEEEPhyRNS4_6bitsetILm2048EEEyRNS_6VectorE
__ZN6duckdb21TemplatedColumnReaderIyNS_31TemplatedParquetValueConversionIyEEE7OffsetsEPjPhyRNSt3__26bitsetILm2048EEEyRNS_6VectorE
__ZN6duckdb21TemplatedColumnReaderIyNS_31TemplatedParquetValueConversionIyEEED0Ev
__ZN6duckdb21TemplatedColumnReaderIyNS_31TemplatedParquetValueConversionIyEEED2Ev
__ZN6duckdb21TemplatedValidityMaskIyE11SetAllValidEy
__ZN6duckdb21TemplatedValidityMaskIyE13SetAllInvalidEy
__ZN6duckdb21TemplatedValidityMaskIyE4CopyERKS1_y
__ZN6duckdb22BasicColumnWriterStateD0Ev
__ZN6duckdb22BasicColumnWriterStateD2Ev
__ZN6duckdb22BooleanStatisticsState11GetMaxValueEv
__ZN6duckdb22BooleanStatisticsState11GetMinValueEv
__ZN6duckdb22BooleanStatisticsState6GetMaxEv
__ZN6duckdb22BooleanStatisticsState6GetMinEv
__ZN6duckdb22BooleanStatisticsStateD0Ev
__ZN6duckdb22BooleanWriterPageStateD0Ev
__ZN6duckdb22BoundNotNullConstraintD0Ev
__ZN6duckdb22ColumnWriterStatistics11GetMaxValueEv
__ZN6duckdb22ColumnWriterStatistics11GetMinValueEv
__ZN6duckdb22ColumnWriterStatistics6GetMaxEv
__ZN6duckdb22ColumnWriterStatistics6GetMinEv
__ZN6duckdb22ColumnWriterStatisticsD0Ev
__ZN6duckdb22ColumnWriterStatisticsD1Ev
__ZN6duckdb22ColumnWriterStatisticsD2Ev
__ZN6duckdb22CreateCopyFunctionInfoC1ENS_12CopyFunctionE
__ZN6duckdb22CreateCopyFunctionInfoD2Ev
__ZN6duckdb22DefaultSchemaGenerator17GetDefaultEntriesEv
__ZN6duckdb22DefaultSchemaGeneratorC1ERNS_7CatalogE
__ZN6duckdb22ExpressionTypeToStringENS_14ExpressionTypeE
__ZN6duckdb22FixedDecimalStatistics11GetMaxValueEv
__ZN6duckdb22FixedDecimalStatistics11GetMinValueEv
__ZN6duckdb22FixedDecimalStatistics6GetMaxEv
__ZN6duckdb22FixedDecimalStatistics6GetMinEv
__ZN6duckdb22FixedDecimalStatisticsD0Ev
__ZN6duckdb22MultiFileReaderOptions11DeserializeERNS_12DeserializerE
__ZN6duckdb22MultiFileReaderOptions26AutoDetectHivePartitioningERKNS_6vectorINSt3__212basic_stringIcNS2_11char_traitsIcEENS2_9allocatorIcEEEELb1EEERNS_13ClientContextE
__ZN6duckdb22MultiFileReaderOptionsD2Ev
__ZN6duckdb22NumericStatisticsStateINS_10dtime_tz_tExNS_19BaseParquetOperatorEE11GetMaxValueEv
__ZN6duckdb22NumericStatisticsStateINS_10dtime_tz_tExNS_19BaseParquetOperatorEE11GetMinValueEv
__ZN6duckdb22NumericStatisticsStateINS_10dtime_tz_tExNS_19BaseParquetOperatorEE6GetMaxEv
__ZN6duckdb22NumericStatisticsStateINS_10dtime_tz_tExNS_19BaseParquetOperatorEE6GetMinEv
__ZN6duckdb22NumericStatisticsStateINS_10dtime_tz_tExNS_19BaseParquetOperatorEED0Ev
__ZN6duckdb22NumericStatisticsStateIaiNS_19BaseParquetOperatorEE11GetMaxValueEv
__ZN6duckdb22NumericStatisticsStateIaiNS_19BaseParquetOperatorEE11GetMinValueEv
__ZN6duckdb22NumericStatisticsStateIaiNS_19BaseParquetOperatorEE6GetMaxEv
__ZN6duckdb22NumericStatisticsStateIaiNS_19BaseParquetOperatorEE6GetMinEv
__ZN6duckdb22NumericStatisticsStateIaiNS_19BaseParquetOperatorEED0Ev
__ZN6duckdb22NumericStatisticsStateIddNS_19BaseParquetOperatorEE11GetMaxValueEv
__ZN6duckdb22NumericStatisticsStateIddNS_19BaseParquetOperatorEE11GetMinValueEv
__ZN6duckdb22NumericStatisticsStateIddNS_19BaseParquetOperatorEE6GetMaxEv
__ZN6duckdb22NumericStatisticsStateIddNS_19BaseParquetOperatorEE6GetMinEv
__ZN6duckdb22NumericStatisticsStateIddNS_19BaseParquetOperatorEED0Ev
__ZN6duckdb22NumericStatisticsStateIffNS_19BaseParquetOperatorEE11GetMaxValueEv
__ZN6duckdb22NumericStatisticsStateIffNS_19BaseParquetOperatorEE11GetMinValueEv
__ZN6duckdb22NumericStatisticsStateIffNS_19BaseParquetOperatorEE6GetMaxEv
__ZN6duckdb22NumericStatisticsStateIffNS_19BaseParquetOperatorEE6GetMinEv
__ZN6duckdb22NumericStatisticsStateIffNS_19BaseParquetOperatorEED0Ev
__ZN6duckdb22NumericStatisticsStateIhiNS_19BaseParquetOperatorEE11GetMaxValueEv
__ZN6duckdb22NumericStatisticsStateIhiNS_19BaseParquetOperatorEE11GetMinValueEv
__ZN6duckdb22NumericStatisticsStateIhiNS_19BaseParquetOperatorEE6GetMaxEv
__ZN6duckdb22NumericStatisticsStateIhiNS_19BaseParquetOperatorEE6GetMinEv
__ZN6duckdb22NumericStatisticsStateIhiNS_19BaseParquetOperatorEED0Ev
__ZN6duckdb22NumericStatisticsStateIiiNS_19BaseParquetOperatorEE11GetMaxValueEv
__ZN6duckdb22NumericStatisticsStateIiiNS_19BaseParquetOperatorEE11GetMinValueEv
__ZN6duckdb22NumericStatisticsStateIiiNS_19BaseParquetOperatorEE6GetMaxEv
__ZN6duckdb22NumericStatisticsStateIiiNS_19BaseParquetOperatorEE6GetMinEv
__ZN6duckdb22NumericStatisticsStateIiiNS_19BaseParquetOperatorEED0Ev
__ZN6duckdb22NumericStatisticsStateIjjNS_19BaseParquetOperatorEE11GetMaxValueEv
__ZN6duckdb22NumericStatisticsStateIjjNS_19BaseParquetOperatorEE11GetMinValueEv
__ZN6duckdb22NumericStatisticsStateIjjNS_19BaseParquetOperatorEE6GetMaxEv
__ZN6duckdb22NumericStatisticsStateIjjNS_19BaseParquetOperatorEE6GetMinEv
__ZN6duckdb22NumericStatisticsStateIjjNS_19BaseParquetOperatorEED0Ev
__ZN6duckdb22NumericStatisticsStateIsiNS_19BaseParquetOperatorEE11GetMaxValueEv
__ZN6duckdb22NumericStatisticsStateIsiNS_19BaseParquetOperatorEE11GetMinValueEv
__ZN6duckdb22NumericStatisticsStateIsiNS_19BaseParquetOperatorEE6GetMaxEv
__ZN6duckdb22NumericStatisticsStateIsiNS_19BaseParquetOperatorEE6GetMinEv
__ZN6duckdb22NumericStatisticsStateIsiNS_19BaseParquetOperatorEED0Ev
__ZN6duckdb22NumericStatisticsStateItiNS_19BaseParquetOperatorEE11GetMaxValueEv
__ZN6duckdb22NumericStatisticsStateItiNS_19BaseParquetOperatorEE11GetMinValueEv
__ZN6duckdb22NumericStatisticsStateItiNS_19BaseParquetOperatorEE6GetMaxEv
__ZN6duckdb22NumericStatisticsStateItiNS_19BaseParquetOperatorEE6GetMinEv
__ZN6duckdb22NumericStatisticsStateItiNS_19BaseParquetOperatorEED0Ev
__ZN6duckdb22NumericStatisticsStateIxxNS_19BaseParquetOperatorEE11GetMaxValueEv
__ZN6duckdb22NumericStatisticsStateIxxNS_19BaseParquetOperatorEE11GetMinValueEv
__ZN6duckdb22NumericStatisticsStateIxxNS_19BaseParquetOperatorEE6GetMaxEv
__ZN6duckdb22NumericStatisticsStateIxxNS_19BaseParquetOperatorEE6GetMinEv
__ZN6duckdb22NumericStatisticsStateIxxNS_19BaseParquetOperatorEED0Ev
__ZN6duckdb22NumericStatisticsStateIyyNS_19BaseParquetOperatorEE11GetMaxValueEv
__ZN6duckdb22NumericStatisticsStateIyyNS_19BaseParquetOperatorEE11GetMinValueEv
__ZN6duckdb22NumericStatisticsStateIyyNS_19BaseParquetOperatorEE6GetMaxEv
__ZN6duckdb22NumericStatisticsStateIyyNS_19BaseParquetOperatorEE6GetMinEv
__ZN6duckdb22NumericStatisticsStateIyyNS_19BaseParquetOperatorEED0Ev
__ZN6duckdb22ParquetReadGlobalStateD0Ev
__ZN6duckdb22ParquetReadGlobalStateD2Ev
__ZN6duckdb22ParquetReaderScanStateC2Ev
__ZN6duckdb22ParquetReaderScanStateD2Ev
__ZN6duckdb22ParquetScanReplacementERNS_13ClientContextERKNSt3__212basic_stringIcNS2_11char_traitsIcEENS2_9allocatorIcEEEEPNS_19ReplacementScanDataE
__ZN6duckdb22ParquetWriteFlushBatchERNS_13ClientContextERNS_12FunctionDataERNS_18GlobalFunctionDataERNS_17PreparedBatchDataE
__ZN6duckdb22ParquetWriteLocalStateC2ERNS_13ClientContextERKNS_6vectorINS_11LogicalTypeELb1EEE
__ZN6duckdb22ParquetWriteLocalStateD0Ev
__ZN6duckdb22ParquetWriteLocalStateD2Ev
__ZN6duckdb22PhysicalColumnDataScanC1ENS_6vectorINS_11LogicalTypeELb1EEENS_20PhysicalOperatorTypeEyNS_10unique_ptrINS_20ColumnDataCollectionENSt3__214default_deleteIS6_EELb1EEE
__ZN6duckdb22SerializationExceptionC1ERKNSt3__212basic_stringIcNS1_11char_traitsIcEENS1_9allocatorIcEEEE
__ZN6duckdb22VariableReturnBindDataD0Ev
__ZN6duckdb22VariableReturnBindDataD2Ev
__ZN6duckdb23ColumnDependencyManagerC1Ev
__ZN6duckdb23ColumnDependencyManagerD1Ev
__ZN6duckdb23CreateTableFunctionInfoC1ENS_13TableFunctionE
__ZN6duckdb23CreateTableFunctionInfoC1ENS_16TableFunctionSetE
__ZN6duckdb23CreateTableFunctionInfoD2Ev
__ZN6duckdb23LocalTableFunctionStateD2Ev
__ZN6duckdb23LogicalOperatorToStringENS_19LogicalOperatorTypeE
__ZN6duckdb23MaterializedQueryResult10CollectionEv
__ZN6duckdb23MaterializedQueryResult8GetValueEyy
__ZN6duckdb23MultiFileReaderBindData11DeserializeERNS_12DeserializerE
__ZN6duckdb23MultiFileReaderBindDataD2Ev
__ZN6duckdb23NotImplementedExceptionC1ERKNSt3__212basic_stringIcNS1_11char_traitsIcEENS1_9allocatorIcEEEE
__ZN6duckdb23NotImplementedExceptionC2ERKNSt3__212basic_stringIcNS1_11char_traitsIcEENS1_9allocatorIcEEEE
__ZN6duckdb23NotImplementedExceptionC2IJNSt3__212basic_stringIcNS2_11char_traitsIcEENS2_9allocatorIcEEEEEEERKS8_DpT_
__ZN6duckdb23NotImplementedExceptionC2IJPKcEEERKNSt3__212basic_stringIcNS4_11char_traitsIcEENS4_9allocatorIcEEEEDpT_
__ZN6duckdb23NotImplementedExceptionC2IJiEEERKNSt3__212basic_stringIcNS2_11char_traitsIcEENS2_9allocatorIcEEEEDpT_
__ZN6duckdb23ParquetMetaDataBindDataD0Ev
__ZN6duckdb23ParquetMetaDataBindDataD2Ev
__ZN6duckdb23ParquetMetaDataFunctionD0Ev
__ZN6duckdb23ParquetWriteGlobalStateD0Ev
__ZN6duckdb23ParquetWriteGlobalStateD2Ev
__ZN6duckdb23StringColumnWriterStateD0Ev
__ZN6duckdb23StringColumnWriterStateD2Ev
__ZN6duckdb23StructColumnWriterStateD0Ev
__ZN6duckdb23StructColumnWriterStateD2Ev
__ZN6duckdb24BoundReferenceExpressionC1ENS_11LogicalTypeEy
__ZN6duckdb24COLUMN_IDENTIFIER_ROW_IDE
__ZN6duckdb24CommonTableExpressionMapC1Ev
__ZN6duckdb24CreatePragmaFunctionInfoC1ENS_14PragmaFunctionE
__ZN6duckdb24CreatePragmaFunctionInfoC1ENSt3__212basic_stringIcNS1_11char_traitsIcEENS1_9allocatorIcEEEENS_17PragmaFunctionSetE
__ZN6duckdb24CreatePragmaFunctionInfoD2Ev
__ZN6duckdb24CreateScalarFunctionInfoC1ENS_14ScalarFunctionE
__ZN6duckdb24CreateScalarFunctionInfoD2Ev
__ZN6duckdb24DefaultFunctionGenerator23CreateInternalMacroInfoERNS_12DefaultMacroE
__ZN6duckdb24FixedDecimalColumnWriter10GetRowSizeERNS_6VectorEyRNS_22BasicColumnWriterStateE
__ZN6duckdb24FixedDecimalColumnWriter11WriteVectorERNS_11WriteStreamEPNS_22ColumnWriterStatisticsEPNS_21ColumnWriterPageStateERNS_6VectorEyy
__ZN6duckdb24FixedDecimalColumnWriter20InitializeStatsStateEv
__ZN6duckdb24FixedDecimalColumnWriterD0Ev
__ZN6duckdb24GlobalTableFunctionStateD2Ev
__ZN6duckdb24LogicalExtensionOperator21ResolveColumnBindingsERNS_21ColumnBindingResolverERNS_6vectorINS_13ColumnBindingELb1EEE
__ZN6duckdb24ParquetFileMetadataCache13GetObjectTypeEv
__ZN6duckdb24ParquetFileMetadataCacheD0Ev
__ZN6duckdb24ParquetFileMetadataCacheD2Ev
__ZN6duckdb24ParquetWritePrepareBatchERNS_13ClientContextERNS_12FunctionDataERNS_18GlobalFunctionDataENS_10unique_ptrINS_20ColumnDataCollectionENSt3__214default_deleteIS7_EELb1EEE
__ZN6duckdb24ParsedExpressionIterator17EnumerateChildrenERNS_16ParsedExpressionERKNSt3__28functionIFvS2_EEE
__ZN6duckdb24ParsedExpressionIterator26EnumerateQueryNodeChildrenERNS_9QueryNodeERKNSt3__28functionIFvRNS_10unique_ptrINS_16ParsedExpressionENS3_14default_deleteIS6_EELb1EEEEEE
__ZN6duckdb24TemplatedFilterOperationINS_8string_tENS_11GreaterThanEEEvRNS_6VectorET_RNSt3__26bitsetILm2048EEEy
__ZN6duckdb24TemplatedFilterOperationINS_8string_tENS_14LessThanEqualsEEEvRNS_6VectorET_RNSt3__26bitsetILm2048EEEy
__ZN6duckdb24TemplatedFilterOperationINS_8string_tENS_17GreaterThanEqualsEEEvRNS_6VectorET_RNSt3__26bitsetILm2048EEEy
__ZN6duckdb24TemplatedFilterOperationINS_8string_tENS_6EqualsEEEvRNS_6VectorET_RNSt3__26bitsetILm2048EEEy
__ZN6duckdb24TemplatedFilterOperationINS_8string_tENS_8LessThanEEEvRNS_6VectorET_RNSt3__26bitsetILm2048EEEy
__ZN6duckdb24TemplatedFilterOperationINS_9hugeint_tENS_11GreaterThanEEEvRNS_6VectorET_RNSt3__26bitsetILm2048EEEy
__ZN6duckdb24TemplatedFilterOperationINS_9hugeint_tENS_14LessThanEqualsEEEvRNS_6VectorET_RNSt3__26bitsetILm2048EEEy
__ZN6duckdb24TemplatedFilterOperationINS_9hugeint_tENS_17GreaterThanEqualsEEEvRNS_6VectorET_RNSt3__26bitsetILm2048EEEy
__ZN6duckdb24TemplatedFilterOperationINS_9hugeint_tENS_6EqualsEEEvRNS_6VectorET_RNSt3__26bitsetILm2048EEEy
__ZN6duckdb24TemplatedFilterOperationINS_9hugeint_tENS_8LessThanEEEvRNS_6VectorET_RNSt3__26bitsetILm2048EEEy
__ZN6duckdb24TemplatedFilterOperationIaNS_11GreaterThanEEEvRNS_6VectorET_RNSt3__26bitsetILm2048EEEy
__ZN6duckdb24TemplatedFilterOperationIaNS_14LessThanEqualsEEEvRNS_6VectorET_RNSt3__26bitsetILm2048EEEy
__ZN6duckdb24TemplatedFilterOperationIaNS_17GreaterThanEqualsEEEvRNS_6VectorET_RNSt3__26bitsetILm2048EEEy
__ZN6duckdb24TemplatedFilterOperationIaNS_6EqualsEEEvRNS_6VectorET_RNSt3__26bitsetILm2048EEEy
__ZN6duckdb24TemplatedFilterOperationIaNS_8LessThanEEEvRNS_6VectorET_RNSt3__26bitsetILm2048EEEy
__ZN6duckdb24TemplatedFilterOperationIbNS_11GreaterThanEEEvRNS_6VectorET_RNSt3__26bitsetILm2048EEEy
__ZN6duckdb24TemplatedFilterOperationIbNS_14LessThanEqualsEEEvRNS_6VectorET_RNSt3__26bitsetILm2048EEEy
__ZN6duckdb24TemplatedFilterOperationIbNS_17GreaterThanEqualsEEEvRNS_6VectorET_RNSt3__26bitsetILm2048EEEy
__ZN6duckdb24TemplatedFilterOperationIbNS_6EqualsEEEvRNS_6VectorET_RNSt3__26bitsetILm2048EEEy
__ZN6duckdb24TemplatedFilterOperationIbNS_8LessThanEEEvRNS_6VectorET_RNSt3__26bitsetILm2048EEEy
__ZN6duckdb24TemplatedFilterOperationIdNS_11GreaterThanEEEvRNS_6VectorET_RNSt3__26bitsetILm2048EEEy
__ZN6duckdb24TemplatedFilterOperationIdNS_14LessThanEqualsEEEvRNS_6VectorET_RNSt3__26bitsetILm2048EEEy
__ZN6duckdb24TemplatedFilterOperationIdNS_17GreaterThanEqualsEEEvRNS_6VectorET_RNSt3__26bitsetILm2048EEEy
__ZN6duckdb24TemplatedFilterOperationIdNS_6EqualsEEEvRNS_6VectorET_RNSt3__26bitsetILm2048EEEy
__ZN6duckdb24TemplatedFilterOperationIdNS_8LessThanEEEvRNS_6VectorET_RNSt3__26bitsetILm2048EEEy
__ZN6duckdb24TemplatedFilterOperationIfNS_11GreaterThanEEEvRNS_6VectorET_RNSt3__26bitsetILm2048EEEy
__ZN6duckdb24TemplatedFilterOperationIfNS_14LessThanEqualsEEEvRNS_6VectorET_RNSt3__26bitsetILm2048EEEy
__ZN6duckdb24TemplatedFilterOperationIfNS_17GreaterThanEqualsEEEvRNS_6VectorET_RNSt3__26bitsetILm2048EEEy
__ZN6duckdb24TemplatedFilterOperationIfNS_6EqualsEEEvRNS_6VectorET_RNSt3__26bitsetILm2048EEEy
__ZN6duckdb24TemplatedFilterOperationIfNS_8LessThanEEEvRNS_6VectorET_RNSt3__26bitsetILm2048EEEy
__ZN6duckdb24TemplatedFilterOperationIhNS_11GreaterThanEEEvRNS_6VectorET_RNSt3__26bitsetILm2048EEEy
__ZN6duckdb24TemplatedFilterOperationIhNS_14LessThanEqualsEEEvRNS_6VectorET_RNSt3__26bitsetILm2048EEEy
__ZN6duckdb24TemplatedFilterOperationIhNS_17GreaterThanEqualsEEEvRNS_6VectorET_RNSt3__26bitsetILm2048EEEy
__ZN6duckdb24TemplatedFilterOperationIhNS_6EqualsEEEvRNS_6VectorET_RNSt3__26bitsetILm2048EEEy
__ZN6duckdb24TemplatedFilterOperationIhNS_8LessThanEEEvRNS_6VectorET_RNSt3__26bitsetILm2048EEEy
__ZN6duckdb24TemplatedFilterOperationIiNS_11GreaterThanEEEvRNS_6VectorET_RNSt3__26bitsetILm2048EEEy
__ZN6duckdb24TemplatedFilterOperationIiNS_14LessThanEqualsEEEvRNS_6VectorET_RNSt3__26bitsetILm2048EEEy
__ZN6duckdb24TemplatedFilterOperationIiNS_17GreaterThanEqualsEEEvRNS_6VectorET_RNSt3__26bitsetILm2048EEEy
__ZN6duckdb24TemplatedFilterOperationIiNS_6EqualsEEEvRNS_6VectorET_RNSt3__26bitsetILm2048EEEy
__ZN6duckdb24TemplatedFilterOperationIiNS_8LessThanEEEvRNS_6VectorET_RNSt3__26bitsetILm2048EEEy
__ZN6duckdb24TemplatedFilterOperationIjNS_11GreaterThanEEEvRNS_6VectorET_RNSt3__26bitsetILm2048EEEy
__ZN6duckdb24TemplatedFilterOperationIjNS_14LessThanEqualsEEEvRNS_6VectorET_RNSt3__26bitsetILm2048EEEy
__ZN6duckdb24TemplatedFilterOperationIjNS_17GreaterThanEqualsEEEvRNS_6VectorET_RNSt3__26bitsetILm2048EEEy
__ZN6duckdb24TemplatedFilterOperationIjNS_6EqualsEEEvRNS_6VectorET_RNSt3__26bitsetILm2048EEEy
__ZN6duckdb24TemplatedFilterOperationIjNS_8LessThanEEEvRNS_6VectorET_RNSt3__26bitsetILm2048EEEy
__ZN6duckdb24TemplatedFilterOperationIsNS_11GreaterThanEEEvRNS_6VectorET_RNSt3__26bitsetILm2048EEEy
__ZN6duckdb24TemplatedFilterOperationIsNS_14LessThanEqualsEEEvRNS_6VectorET_RNSt3__26bitsetILm2048EEEy
__ZN6duckdb24TemplatedFilterOperationIsNS_17GreaterThanEqualsEEEvRNS_6VectorET_RNSt3__26bitsetILm2048EEEy
__ZN6duckdb24TemplatedFilterOperationIsNS_6EqualsEEEvRNS_6VectorET_RNSt3__26bitsetILm2048EEEy
__ZN6duckdb24TemplatedFilterOperationIsNS_8LessThanEEEvRNS_6VectorET_RNSt3__26bitsetILm2048EEEy
__ZN6duckdb24TemplatedFilterOperationItNS_11GreaterThanEEEvRNS_6VectorET_RNSt3__26bitsetILm2048EEEy
__ZN6duckdb24TemplatedFilterOperationItNS_14LessThanEqualsEEEvRNS_6VectorET_RNSt3__26bitsetILm2048EEEy
__ZN6duckdb24TemplatedFilterOperationItNS_17GreaterThanEqualsEEEvRNS_6VectorET_RNSt3__26bitsetILm2048EEEy
__ZN6duckdb24TemplatedFilterOperationItNS_6EqualsEEEvRNS_6VectorET_RNSt3__26bitsetILm2048EEEy
__ZN6duckdb24TemplatedFilterOperationItNS_8LessThanEEEvRNS_6VectorET_RNSt3__26bitsetILm2048EEEy
__ZN6duckdb24TemplatedFilterOperationIxNS_11GreaterThanEEEvRNS_6VectorET_RNSt3__26bitsetILm2048EEEy
__ZN6duckdb24TemplatedFilterOperationIxNS_14LessThanEqualsEEEvRNS_6VectorET_RNSt3__26bitsetILm2048EEEy
__ZN6duckdb24TemplatedFilterOperationIxNS_17GreaterThanEqualsEEEvRNS_6VectorET_RNSt3__26bitsetILm2048EEEy
__ZN6duckdb24TemplatedFilterOperationIxNS_6EqualsEEEvRNS_6VectorET_RNSt3__26bitsetILm2048EEEy
__ZN6duckdb24TemplatedFilterOperationIxNS_8LessThanEEEvRNS_6VectorET_RNSt3__26bitsetILm2048EEEy
__ZN6duckdb24TemplatedFilterOperationIyNS_11GreaterThanEEEvRNS_6VectorET_RNSt3__26bitsetILm2048EEEy
__ZN6duckdb24TemplatedFilterOperationIyNS_14LessThanEqualsEEEvRNS_6VectorET_RNSt3__26bitsetILm2048EEEy
__ZN6duckdb24TemplatedFilterOperationIyNS_17GreaterThanEqualsEEEvRNS_6VectorET_RNSt3__26bitsetILm2048EEEy
__ZN6duckdb24TemplatedFilterOperationIyNS_6EqualsEEEvRNS_6VectorET_RNSt3__26bitsetILm2048EEEy
__ZN6duckdb24TemplatedFilterOperationIyNS_8LessThanEEEvRNS_6VectorET_RNSt3__26bitsetILm2048EEEy
__ZN6duckdb25BoundForeignKeyConstraintD0Ev
__ZN6duckdb25BoundForeignKeyConstraintD2Ev
__ZN6duckdb25ParquetStringVectorBufferD0Ev
__ZN6duckdb25ParquetStringVectorBufferD2Ev
__ZN6duckdb25ParquetWriteExecutionModeEbb
__ZN6duckdb25ParserExtensionPlanResultD2Ev
__ZN6duckdb26BoundConjunctionExpressionC1ENS_14ExpressionTypeE
__ZN6duckdb27ParquetMetaDataOperatorDataC2ERNS_13ClientContextERKNS_6vectorINS_11LogicalTypeELb1EEE
__ZN6duckdb27ParquetMetaDataOperatorDataD0Ev
__ZN6duckdb27ParquetMetaDataOperatorDataD2Ev
__ZN6duckdb27ParquetWriteInitializeLocalERNS_16ExecutionContextERNS_12FunctionDataE
__ZN6duckdb27PrintParquetElementToStringIRKN14duckdb_parquet6format10StringTypeEEENSt3__212basic_stringIcNS6_11char_traitsIcEENS6_9allocatorIcEEEEOT_
__ZN6duckdb27PrintParquetElementToStringIRKN14duckdb_parquet6format11DecimalTypeEEENSt3__212basic_stringIcNS6_11char_traitsIcEENS6_9allocatorIcEEEEOT_
__ZN6duckdb27PrintParquetElementToStringIRKN14duckdb_parquet6format13TimestampTypeEEENSt3__212basic_stringIcNS6_11char_traitsIcEENS6_9allocatorIcEEEEOT_
__ZN6duckdb27PrintParquetElementToStringIRKN14duckdb_parquet6format7IntTypeEEENSt3__212basic_stringIcNS6_11char_traitsIcEENS6_9allocatorIcEEEEOT_
__ZN6duckdb27PrintParquetElementToStringIRKN14duckdb_parquet6format7MapTypeEEENSt3__212basic_stringIcNS6_11char_traitsIcEENS6_9allocatorIcEEEEOT_
__ZN6duckdb27PrintParquetElementToStringIRKN14duckdb_parquet6format8BsonTypeEEENSt3__212basic_stringIcNS6_11char_traitsIcEENS6_9allocatorIcEEEEOT_
__ZN6duckdb27PrintParquetElementToStringIRKN14duckdb_parquet6format8DateTypeEEENSt3__212basic_stringIcNS6_11char_traitsIcEENS6_9allocatorIcEEEEOT_
__ZN6duckdb27PrintParquetElementToStringIRKN14duckdb_parquet6format8EnumTypeEEENSt3__212basic_stringIcNS6_11char_traitsIcEENS6_9allocatorIcEEEEOT_
__ZN6duckdb27PrintParquetElementToStringIRKN14duckdb_parquet6format8JsonTypeEEENSt3__212basic_stringIcNS6_11char_traitsIcEENS6_9allocatorIcEEEEOT_
__ZN6duckdb27PrintParquetElementToStringIRKN14duckdb_parquet6format8ListTypeEEENSt3__212basic_stringIcNS6_11char_traitsIcEENS6_9allocatorIcEEEEOT_
__ZN6duckdb27PrintParquetElementToStringIRKN14duckdb_parquet6format8NullTypeEEENSt3__212basic_stringIcNS6_11char_traitsIcEENS6_9allocatorIcEEEEOT_
__ZN6duckdb27PrintParquetElementToStringIRKN14duckdb_parquet6format8TimeTypeEEENSt3__212basic_stringIcNS6_11char_traitsIcEENS6_9allocatorIcEEEEOT_
__ZN6duckdb27PrintParquetElementToStringIRKN14duckdb_parquet6format8UUIDTypeEEENSt3__212basic_stringIcNS6_11char_traitsIcEENS6_9allocatorIcEEEEOT_
__ZN6duckdb28ParquetWriteDesiredBatchSizeERNS_13ClientContextERNS_12FunctionDataE
__ZN6duckdb28ParquetWriteInitializeGlobalERNS_13ClientContextERNS_12FunctionDataERKNSt3__212basic_stringIcNS4_11char_traitsIcEENS4_9allocatorIcEEEE
__ZN6duckdb28SimpleNamedParameterFunctionD2Ev
__ZN6duckdb28TransformStringToLogicalTypeERKNSt3__212basic_stringIcNS0_11char_traitsIcEENS0_9allocatorIcEEEERNS_13ClientContextE
__ZN6duckdb29BooleanParquetValueConversion9PlainReadERNS_10ByteBufferERNS_12ColumnReaderE
__ZN6duckdb29ConvertParquetElementToStringIRKN14duckdb_parquet6format13ConvertedType4typeEEENSt3__212basic_stringIcNS7_11char_traitsIcEENS7_9allocatorIcEEEEOT_
__ZN6duckdb29ConvertParquetElementToStringIRKN14duckdb_parquet6format19FieldRepetitionType4typeEEENSt3__212basic_stringIcNS7_11char_traitsIcEENS7_9allocatorIcEEEEOT_
__ZN6duckdb29ConvertParquetElementToStringIRKN14duckdb_parquet6format4Type4typeEEENSt3__212basic_stringIcNS7_11char_traitsIcEENS7_9allocatorIcEEEEOT_
__ZN6duckdb29DecimalParquetValueConversionINS_9hugeint_tELb0EE9PlainReadERNS_10ByteBufferERNS_12ColumnReaderE
__ZN6duckdb29DecimalParquetValueConversionINS_9hugeint_tELb0EE9PlainSkipERNS_10ByteBufferERNS_12ColumnReaderE
__ZN6duckdb29DecimalParquetValueConversionINS_9hugeint_tELb1EE9PlainReadERNS_10ByteBufferERNS_12ColumnReaderE
__ZN6duckdb29DecimalParquetValueConversionIiLb0EE9PlainReadERNS_10ByteBufferERNS_12ColumnReaderE
__ZN6duckdb29DecimalParquetValueConversionIiLb0EE9PlainSkipERNS_10ByteBufferERNS_12ColumnReaderE
__ZN6duckdb29DecimalParquetValueConversionIiLb1EE9PlainReadERNS_10ByteBufferERNS_12ColumnReaderE
__ZN6duckdb29DecimalParquetValueConversionIsLb0EE9PlainReadERNS_10ByteBufferERNS_12ColumnReaderE
__ZN6duckdb29DecimalParquetValueConversionIsLb0EE9PlainSkipERNS_10ByteBufferERNS_12ColumnReaderE
__ZN6duckdb29DecimalParquetValueConversionIsLb1EE9PlainReadERNS_10ByteBufferERNS_12ColumnReaderE
__ZN6duckdb29DecimalParquetValueConversionIxLb0EE9PlainReadERNS_10ByteBufferERNS_12ColumnReaderE
__ZN6duckdb29DecimalParquetValueConversionIxLb0EE9PlainSkipERNS_10ByteBufferERNS_12ColumnReaderE
__ZN6duckdb29DecimalParquetValueConversionIxLb1EE9PlainReadERNS_10ByteBufferERNS_12ColumnReaderE
__ZN6duckdb29MultiplyOperatorOverflowCheck9OperationIxxxEET1_T_T0_
__ZN6duckdb29ParameterNotResolvedExceptionC1Ev
__ZN6duckdb29ParquetMetaDataImplementationILb0EEEvRNS_13ClientContextERNS_18TableFunctionInputERNS_9DataChunkE
__ZN6duckdb29ParquetMetaDataImplementationILb1EEEvRNS_13ClientContextERNS_18TableFunctionInputERNS_9DataChunkE
__ZN6duckdb29PositionalReferenceExpressionC1Ey
__ZN6duckdb29SubtractOperatorOverflowCheck9OperationIiiiEET1_T_T0_
__ZN6duckdb29SubtractOperatorOverflowCheck9OperationIxxxEET1_T_T0_
__ZN6duckdb30ColumnDataChunkIterationHelper23ColumnDataChunkIteratorC1EPKNS_20ColumnDataCollectionENS_6vectorIyLb1EEE
__ZN6duckdb30ColumnDataChunkIterationHelper23ColumnDataChunkIteratorppEv
__ZN6duckdb30ColumnDataChunkIterationHelper5beginEv
__ZN6duckdb4Blob6ToBlobENS_8string_tE
__ZN6duckdb4Blob8ToStringENS_8string_tE
__ZN6duckdb4Blob8ToStringENS_8string_tEPc
__ZN6duckdb4Date10FromStringERKNSt3__212basic_stringIcNS1_11char_traitsIcEENS1_9allocatorIcEEEEb
__ZN6duckdb4Date11EpochToDateEx
__ZN6duckdb4Date11FromCStringEPKcyb
__ZN6duckdb4Date11MONTH_NAMESE
__ZN6duckdb4Date11TryFromDateEiiiRNS_6date_tE
__ZN6duckdb4Date5EpochENS_6date_tE
__ZN6duckdb4Date7ConvertENS_6date_tERiS2_S2_
__ZN6duckdb4Date8FromDateEiii
__ZN6duckdb4Date9DAY_NAMESE
__ZN6duckdb4HashINS_8string_tEEEyT_
__ZN6duckdb4HashIPKcEEyT_
__ZN6duckdb4Time10FromTimeMsEx
__ZN6duckdb4Time10FromTimeNsEx
__ZN6duckdb4Time11ToUTCOffsetEii
__ZN6duckdb4Time7ConvertENS_7dtime_tERiS2_S2_S2_
__ZN6duckdb4Time8FromTimeEiiii
__ZN6duckdb4UUID10FromStringENSt3__212basic_stringIcNS1_11char_traitsIcEENS1_9allocatorIcEEEERNS_9hugeint_tE
__ZN6duckdb4UUID18GenerateRandomUUIDERNS_12RandomEngineE
__ZN6duckdb4UUID18GenerateRandomUUIDEv
__ZN6duckdb4UUID8ToStringENS_9hugeint_tEPc
__ZN6duckdb5Event10FinishTaskEv
__ZN6duckdb5Event11FinishEventEv
__ZN6duckdb5Event11InsertEventENSt3__210shared_ptrIS0_EE
__ZN6duckdb5Event13PrintPipelineEv
__ZN6duckdb5Event14FinalizeFinishEv
__ZN6duckdb5Event8SetTasksENS_6vectorINSt3__210shared_ptrINS_4TaskEEELb1EEE
__ZN6duckdb5EventD0Ev
__ZN6duckdb5EventD2Ev
__ZN6duckdb5Value11CreateValueINS_8string_tEEES0_T_
__ZN6duckdb5Value11CreateValueIiEES0_T_
__ZN6duckdb5Value11CreateValueIyEES0_T_
__ZN6duckdb5Value11DeserializeERNS_12DeserializerE
__ZN6duckdb5Value11TIMESTAMPMSENS_11timestamp_tE
__ZN6duckdb5Value11TIMESTAMPNSENS_11timestamp_tE
__ZN6duckdb5Value13FloatIsFiniteEf
__ZN6duckdb5Value13StringIsValidEPKcy
__ZN6duckdb5Value14DoubleIsFiniteEd
__ZN6duckdb5Value16DefaultTryCastAsERKNS_11LogicalTypeEb
__ZN6duckdb5Value4BLOBEPKhy
__ZN6duckdb5Value4DATEENS_6date_tE
__ZN6duckdb5Value4LISTENS_6vectorIS0_Lb1EEE
__ZN6duckdb5Value4LISTERKNS_11LogicalTypeENS_6vectorIS0_Lb1EEE
__ZN6duckdb5Value4TIMEENS_7dtime_tE
__ZN6duckdb5Value4UUIDENS_9hugeint_tE
__ZN6duckdb5Value5FLOATEf
__ZN6duckdb5Value5UNIONENS_6vectorINSt3__24pairINS2_12basic_stringIcNS2_11char_traitsIcEENS2_9allocatorIcEEEENS_11LogicalTypeEEELb1EEEhS0_
__ZN6duckdb5Value6BIGINTEx
__ZN6duckdb5Value6DOUBLEEd
__ZN6duckdb5Value6TIMETZENS_10dtime_tz_tE
__ZN6duckdb5Value7BOOLEANEa
__ZN6duckdb5Value7DECIMALENS_9hugeint_tEhh
__ZN6duckdb5Value7DECIMALEihh
__ZN6duckdb5Value7DECIMALEshh
__ZN6duckdb5Value7DECIMALExhh
__ZN6duckdb5Value7HUGEINTENS_9hugeint_tE
__ZN6duckdb5Value7INTEGEREi
__ZN6duckdb5Value7TINYINTEa
__ZN6duckdb5Value7UBIGINTEy
__ZN6duckdb5Value8INTERVALENS_10interval_tE
__ZN6duckdb5Value8IsFiniteINS_11timestamp_tEEEbT_
__ZN6duckdb5Value8SMALLINTEs
__ZN6duckdb5Value8UINTEGEREj
__ZN6duckdb5Value9TIMESTAMPENS_11timestamp_tE
__ZN6duckdb5ValueC1EDn
__ZN6duckdb5ValueC1ENS_11LogicalTypeE
__ZN6duckdb5ValueC1ENSt3__212basic_stringIcNS1_11char_traitsIcEENS1_9allocatorIcEEEE
__ZN6duckdb5ValueC1EOS0_
__ZN6duckdb5ValueC1EPKc
__ZN6duckdb5ValueC1ERKS0_
__ZN6duckdb5ValueC1Ei
__ZN6duckdb5ValueD1Ev
__ZN6duckdb5ValueaSEOS0_
__ZN6duckdb5ValueaSERKS0_
__ZN6duckdb6Binder12CreateBinderERNS_13ClientContextENS_12optional_ptrIS0_EEb
__ZN6duckdb6Binder4BindERNS_12SQLStatementE
__ZN6duckdb6Binder4BindERNS_9QueryNodeE
__ZN6duckdb6DuckDB13GetFileSystemEv
__ZN6duckdb6DuckDB13LoadExtensionINS_12FtsExtensionEEEvv
__ZN6duckdb6DuckDB13LoadExtensionINS_16ParquetExtensionEEEvv
__ZN6duckdb6DuckDB14LibraryVersionEv
__ZN6duckdb6DuckDB17ExtensionIsLoadedERKNSt3__212basic_stringIcNS1_11char_traitsIcEENS1_9allocatorIcEEEE
__ZN6duckdb6DuckDB8SourceIDEv
__ZN6duckdb6DuckDBC1ERNS_16DatabaseInstanceE
__ZN6duckdb6DuckDBD1Ev
__ZN6duckdb6Equals9OperationIdEEbRKT_S4_
__ZN6duckdb6Equals9OperationIfEEbRKT_S4_
__ZN6duckdb6Parser10ParseQueryERKNSt3__212basic_stringIcNS1_11char_traitsIcEENS1_9allocatorIcEEEE
__ZN6duckdb6Parser18StripUnicodeSpacesERKNSt3__212basic_stringIcNS1_11char_traitsIcEENS1_9allocatorIcEEEERS7_
__ZN6duckdb6Parser19ParseExpressionListERKNSt3__212basic_stringIcNS1_11char_traitsIcEENS1_9allocatorIcEEEENS_13ParserOptionsE
__ZN6duckdb6ParserC1ENS_13ParserOptionsE
__ZN6duckdb6ParserD2Ev
__ZN6duckdb6Vector10InitializeEby
__ZN6duckdb6Vector13SetVectorTypeENS_10VectorTypeE
__ZN6duckdb6Vector14ResetFromCacheERKNS_11VectorCacheE
__ZN6duckdb6Vector15ToUnifiedFormatEyRNS_19UnifiedVectorFormatE
__ZN6duckdb6Vector5SliceERS0_yy
__ZN6duckdb6Vector6VerifyEy
__ZN6duckdb6Vector7FlattenEy
__ZN6duckdb6Vector8SetValueEyRKNS_5ValueE
__ZN6duckdb6Vector9ReferenceERKNS_5ValueE
__ZN6duckdb6VectorC1ENS_11LogicalTypeEPh
__ZN6duckdb6VectorC1ENS_11LogicalTypeEy
__ZN6duckdb6VectorC1ERKNS_11VectorCacheE
__ZN6duckdb6VectorC1ERKNS_5ValueE
__ZN6duckdb6VectorC1ERS0_
__ZN6duckdb6VectorD2Ev
__ZN6duckdb6vectorINS_13AllocatedDataELb1EE4backEv
__ZN6duckdb6vectorINS_15PageInformationELb1EE4backEv
__ZN6duckdb6vectorINS_6VectorELb1EE4backEv
__ZN6duckdb6vectorINSt3__212basic_stringIcNS1_11char_traitsIcEENS1_9allocatorIcEEEELb1EE4backEv
__ZN6duckdb6vectorINSt3__24pairINS1_12basic_stringIcNS1_11char_traitsIcEENS1_9allocatorIcEEEENS_11LogicalTypeEEELb1EEC2ERKSB_
__ZN6duckdb7Catalog10GetCatalogERNS_13ClientContextERKNSt3__212basic_stringIcNS3_11char_traitsIcEENS3_9allocatorIcEEEE
__ZN6duckdb7Catalog10GetSchemasERNS_13ClientContextE
__ZN6duckdb7Catalog11CreateTableERNS_13ClientContextENS_10unique_ptrINS_15CreateTableInfoENSt3__214default_deleteIS4_EELb1EEE
__ZN6duckdb7Catalog11GetAttachedEv
__ZN6duckdb7Catalog13GetAllSchemasERNS_13ClientContextE
__ZN6duckdb7Catalog13IsDuckCatalogEv
__ZN6duckdb7Catalog13ModifyCatalogEv
__ZN6duckdb7Catalog14CreateFunctionERNS_13ClientContextERNS_18CreateFunctionInfoE
__ZN6duckdb7Catalog15GetMetadataInfoERNS_13ClientContextE
__ZN6duckdb7Catalog16GetSystemCatalogERNS_13ClientContextE
__ZN6duckdb7Catalog18CreateCopyFunctionERNS_13ClientContextERNS_22CreateCopyFunctionInfoE
__ZN6duckdb7Catalog19CreateTableFunctionERNS_13ClientContextENS_12optional_ptrINS_23CreateTableFunctionInfoEEE
__ZN6duckdb7Catalog19CreateTableFunctionERNS_13ClientContextERNS_23CreateTableFunctionInfoE
__ZN6duckdb7Catalog20CreatePragmaFunctionERNS_13ClientContextERNS_24CreatePragmaFunctionInfoE
__ZN6duckdb7Catalog21GetCatalogTransactionERNS_13ClientContextE
__ZN6duckdb7Catalog6GetOidEv
__ZN6duckdb7Catalog6VerifyEv
__ZN6duckdb7Catalog7GetNameEv
__ZN6duckdb7Catalog8GetEntryERNS_13ClientContextENS_11CatalogTypeERKNSt3__212basic_stringIcNS4_11char_traitsIcEENS4_9allocatorIcEEEESC_NS_15OnEntryNotFoundENS_17QueryErrorContextE
__ZN6duckdb7Catalog8GetEntryERNS_13ClientContextENS_11CatalogTypeERKNSt3__212basic_stringIcNS4_11char_traitsIcEENS4_9allocatorIcEEEESC_SC_NS_15OnEntryNotFoundENS_17QueryErrorContextE
__ZN6duckdb7Catalog8GetEntryINS_17TableCatalogEntryEEENS_12optional_ptrIT_EERNS_13ClientContextERKNSt3__212basic_stringIcNS8_11char_traitsIcEENS8_9allocatorIcEEEESG_NS_15OnEntryNotFoundENS_17QueryErrorContextE
__ZN6duckdb7Catalog8GetEntryINS_17TableCatalogEntryEEENS_12optional_ptrIT_EERNS_13ClientContextERKNSt3__212basic_stringIcNS8_11char_traitsIcEENS8_9allocatorIcEEEESG_SG_NS_15OnEntryNotFoundENS_17QueryErrorContextE
__ZN6duckdb7Catalog8GetEntryINS_24CopyFunctionCatalogEntryEEENS_12optional_ptrIT_EERNS_13ClientContextERKNSt3__212basic_stringIcNS8_11char_traitsIcEENS8_9allocatorIcEEEESG_NS_15OnEntryNotFoundENS_17QueryErrorContextE
__ZN6duckdb7Catalog9GetSchemaERNS_13ClientContextERKNSt3__212basic_stringIcNS3_11char_traitsIcEENS3_9allocatorIcEEEENS_17QueryErrorContextE
__ZN6duckdb7Catalog9GetSchemaERNS_13ClientContextERKNSt3__212basic_stringIcNS3_11char_traitsIcEENS3_9allocatorIcEEEESB_NS_15OnEntryNotFoundENS_17QueryErrorContextE
__ZN6duckdb7CatalogC2ERNS_16AttachedDatabaseE
__ZN6duckdb7CatalogD2Ev
__ZN6duckdb7FieldIDD2Ev
__ZN6duckdb7Hugeint7TryCastIdEEbNS_9hugeint_tERT_
__ZN6duckdb7Hugeint7TryCastIhEEbNS_9hugeint_tERT_
__ZN6duckdb7MapType7KeyTypeERKNS_11LogicalTypeE
__ZN6duckdb7MapType9ValueTypeERKNS_11LogicalTypeE
__ZN6duckdb7Printer5PrintERKNSt3__212basic_stringIcNS1_11char_traitsIcEENS1_9allocatorIcEEEE
__ZN6duckdb7TryCast9OperationINS_8string_tENS_9hugeint_tEEEbT_RT0_b
__ZN6duckdb7TryCast9OperationINS_8string_tEaEEbT_RT0_b
__ZN6duckdb7TryCast9OperationINS_8string_tEbEEbT_RT0_b
__ZN6duckdb7TryCast9OperationINS_8string_tEdEEbT_RT0_b
__ZN6duckdb7TryCast9OperationINS_8string_tEfEEbT_RT0_b
__ZN6duckdb7TryCast9OperationINS_8string_tEhEEbT_RT0_b
__ZN6duckdb7TryCast9OperationINS_8string_tEiEEbT_RT0_b
__ZN6duckdb7TryCast9OperationINS_8string_tEjEEbT_RT0_b
__ZN6duckdb7TryCast9OperationINS_8string_tEsEEbT_RT0_b
__ZN6duckdb7TryCast9OperationINS_8string_tEtEEbT_RT0_b
__ZN6duckdb7TryCast9OperationINS_8string_tExEEbT_RT0_b
__ZN6duckdb7TryCast9OperationINS_8string_tEyEEbT_RT0_b
__ZN6duckdb7TryCast9OperationIbNS_9hugeint_tEEEbT_RT0_b
__ZN6duckdb7TryCast9OperationIbaEEbT_RT0_b
__ZN6duckdb7TryCast9OperationIbbEEbT_RT0_b
__ZN6duckdb7TryCast9OperationIbdEEbT_RT0_b
__ZN6duckdb7TryCast9OperationIbfEEbT_RT0_b
__ZN6duckdb7TryCast9OperationIbhEEbT_RT0_b
__ZN6duckdb7TryCast9OperationIbiEEbT_RT0_b
__ZN6duckdb7TryCast9OperationIbjEEbT_RT0_b
__ZN6duckdb7TryCast9OperationIbsEEbT_RT0_b
__ZN6duckdb7TryCast9OperationIbtEEbT_RT0_b
__ZN6duckdb7TryCast9OperationIbxEEbT_RT0_b
__ZN6duckdb7TryCast9OperationIbyEEbT_RT0_b
__ZN6duckdb7TryCast9OperationIdNS_9hugeint_tEEEbT_RT0_b
__ZN6duckdb7TryCast9OperationIdaEEbT_RT0_b
__ZN6duckdb7TryCast9OperationIdbEEbT_RT0_b
__ZN6duckdb7TryCast9OperationIddEEbT_RT0_b
__ZN6duckdb7TryCast9OperationIdfEEbT_RT0_b
__ZN6duckdb7TryCast9OperationIdhEEbT_RT0_b
__ZN6duckdb7TryCast9OperationIdiEEbT_RT0_b
__ZN6duckdb7TryCast9OperationIdjEEbT_RT0_b
__ZN6duckdb7TryCast9OperationIdsEEbT_RT0_b
__ZN6duckdb7TryCast9OperationIdtEEbT_RT0_b
__ZN6duckdb7TryCast9OperationIdxEEbT_RT0_b
__ZN6duckdb7TryCast9OperationIdyEEbT_RT0_b
__ZN6duckdb7TryCast9OperationIxNS_9hugeint_tEEEbT_RT0_b
__ZN6duckdb7TryCast9OperationIxaEEbT_RT0_b
__ZN6duckdb7TryCast9OperationIxbEEbT_RT0_b
__ZN6duckdb7TryCast9OperationIxdEEbT_RT0_b
__ZN6duckdb7TryCast9OperationIxfEEbT_RT0_b
__ZN6duckdb7TryCast9OperationIxhEEbT_RT0_b
__ZN6duckdb7TryCast9OperationIxiEEbT_RT0_b
__ZN6duckdb7TryCast9OperationIxjEEbT_RT0_b
__ZN6duckdb7TryCast9OperationIxsEEbT_RT0_b
__ZN6duckdb7TryCast9OperationIxtEEbT_RT0_b
__ZN6duckdb7TryCast9OperationIxxEEbT_RT0_b
__ZN6duckdb7TryCast9OperationIxyEEbT_RT0_b
__ZN6duckdb7TryCast9OperationIyNS_9hugeint_tEEEbT_RT0_b
__ZN6duckdb7TryCast9OperationIyaEEbT_RT0_b
__ZN6duckdb7TryCast9OperationIybEEbT_RT0_b
__ZN6duckdb7TryCast9OperationIydEEbT_RT0_b
__ZN6duckdb7TryCast9OperationIyfEEbT_RT0_b
__ZN6duckdb7TryCast9OperationIyhEEbT_RT0_b
__ZN6duckdb7TryCast9OperationIyiEEbT_RT0_b
__ZN6duckdb7TryCast9OperationIyjEEbT_RT0_b
__ZN6duckdb7TryCast9OperationIysEEbT_RT0_b
__ZN6duckdb7TryCast9OperationIytEEbT_RT0_b
__ZN6duckdb7TryCast9OperationIyxEEbT_RT0_b
__ZN6duckdb7TryCast9OperationIyyEEbT_RT0_b
__ZN6duckdb8BindInfo12InsertOptionERKNSt3__212basic_stringIcNS1_11char_traitsIcEENS1_9allocatorIcEEEENS_5ValueE
__ZN6duckdb8BindInfoD2Ev
__ZN6duckdb8DBConfig15SetOptionByNameERKNSt3__212basic_stringIcNS1_11char_traitsIcEENS1_9allocatorIcEEEERKNS_5ValueE
__ZN6duckdb8DBConfig16GetCastFunctionsEv
__ZN6duckdb8DBConfig16ParseMemoryLimitERKNSt3__212basic_stringIcNS1_11char_traitsIcEENS1_9allocatorIcEEEE
__ZN6duckdb8DBConfig18AddExtensionOptionERKNSt3__212basic_stringIcNS1_11char_traitsIcEENS1_9allocatorIcEEEES7_NS_11LogicalTypeERKNS_5ValueEPFvRNS_13ClientContextENS_8SetScopeERSB_E
__ZN6duckdb8DBConfig9GetConfigERKNS_13ClientContextE
__ZN6duckdb8DBConfig9GetConfigERKNS_16DatabaseInstanceE
__ZN6duckdb8DBConfig9GetConfigERNS_13ClientContextE
__ZN6duckdb8DBConfig9GetConfigERNS_16DatabaseInstanceE
__ZN6duckdb8DBConfig9SetOptionERKNSt3__212basic_stringIcNS1_11char_traitsIcEENS1_9allocatorIcEEEENS_5ValueE
__ZN6duckdb8DropInfoC1Ev
__ZN6duckdb8DropInfoD2Ev
__ZN6duckdb8EnumType20GetValuesInsertOrderERKNS_11LogicalTypeE
__ZN6duckdb8EnumType7GetSizeERKNS_11LogicalTypeE
__ZN6duckdb8EnumUtil10FromStringINS_14ConstraintTypeEEET_PKc
__ZN6duckdb8EnumUtil10FromStringINS_14ForeignKeyTypeEEET_PKc
__ZN6duckdb8EnumUtil10FromStringINS_15OnEntryNotFoundEEET_PKc
__ZN6duckdb8EnumUtil10FromStringINS_16OnCreateConflictEEET_PKc
__ZN6duckdb8EnumUtil10FromStringINS_17ExplainOutputTypeEEET_PKc
__ZN6duckdb8EnumUtil10FromStringINS_19FileCompressionTypeEEET_PKc
__ZN6duckdb8EnumUtil7ToCharsINS_13LogicalTypeIdEEEPKcT_
__ZN6duckdb8EnumUtil7ToCharsINS_13ParseInfoTypeEEEPKcT_
__ZN6duckdb8EnumUtil7ToCharsINS_14ConstraintTypeEEEPKcT_
__ZN6duckdb8EnumUtil7ToCharsINS_14ForeignKeyTypeEEEPKcT_
__ZN6duckdb8EnumUtil7ToCharsINS_15OnEntryNotFoundEEEPKcT_
__ZN6duckdb8EnumUtil7ToCharsINS_16OnCreateConflictEEEPKcT_
__ZN6duckdb8EnumUtil7ToCharsINS_17ExplainOutputTypeEEEPKcT_
__ZN6duckdb8EnumUtil7ToCharsINS_19FileCompressionTypeEEEPKcT_
__ZN6duckdb8EnumUtil8ToStringINS_13LogicalTypeIdEEENSt3__212basic_stringIcNS3_11char_traitsIcEENS3_9allocatorIcEEEET_
__ZN6duckdb8Function13EraseArgumentERNS_14SimpleFunctionERNS_6vectorINS_10unique_ptrINS_10ExpressionENSt3__214default_deleteIS5_EELb1EEELb1EEEy
__ZN6duckdb8FunctionC2ENSt3__212basic_stringIcNS1_11char_traitsIcEENS1_9allocatorIcEEEE
__ZN6duckdb8FunctionD2Ev
__ZN6duckdb8Interval10FromStringERKNSt3__212basic_stringIcNS1_11char_traitsIcEENS1_9allocatorIcEEEERNS_10interval_tE
__ZN6duckdb8Interval8GetMilliERKNS_10interval_tE
__ZN6duckdb8Interval9FromMicroEx
__ZN6duckdb8ListType12GetChildTypeERKNS_11LogicalTypeE
__ZN6duckdb8Relation10CreateViewERKNSt3__212basic_stringIcNS1_11char_traitsIcEENS1_9allocatorIcEEEEbb
__ZN6duckdb8Relation5AliasERKNSt3__212basic_stringIcNS1_11char_traitsIcEENS1_9allocatorIcEEEE
__ZN6duckdb8Relation5PrintEv
__ZN6duckdb8Relation7ExecuteEv
__ZN6duckdb8TableRef4CastINS_11SubqueryRefEEERT_v
__ZN6duckdb8TableRef4CastINS_17ExpressionListRefEEERT_v
__ZN6duckdb8TableRef4CastINS_7JoinRefEEERT_v
__ZN6duckdb8Utf8Proc7AnalyzeEPKcmPNS_20UnicodeInvalidReasonEPm
__ZN6duckdb8ZStdFileD0Ev
__ZN6duckdb8ZStdFileD2Ev
__ZN6duckdb9Allocator12AllocateDataEy
__ZN6duckdb9Allocator16DefaultAllocatorEv
__ZN6duckdb9DataChunk10InitializeERNS_13ClientContextERKNS_6vectorINS_11LogicalTypeELb1EEEy
__ZN6duckdb9DataChunk10InitializeERNS_9AllocatorERKNS_6vectorINS_11LogicalTypeELb1EEEy
__ZN6duckdb9DataChunk11DeserializeERNS_12DeserializerE
__ZN6duckdb9DataChunk16ReferenceColumnsERS0_RKNS_6vectorIyLb1EEE
__ZN6duckdb9DataChunk4MoveERS0_
__ZN6duckdb9DataChunk5ResetEv
__ZN6duckdb9DataChunk5SliceERKNS_15SelectionVectorEy
__ZN6duckdb9DataChunk7DestroyEv
__ZN6duckdb9DataChunk7FlattenEv
__ZN6duckdb9DataChunk8SetValueEyyRKNS_5ValueE
__ZN6duckdb9DataChunkC1Ev
__ZN6duckdb9DataChunkD1Ev
__ZN6duckdb9DataTableC1ERNS_16AttachedDatabaseENSt3__210shared_ptrINS_14TableIOManagerEEERKNS3_12basic_stringIcNS3_11char_traitsIcEENS3_9allocatorIcEEEESE_NS_6vectorINS_16ColumnDefinitionELb1EEENS_10unique_ptrINS_19PersistentTableDataENS3_14default_deleteISJ_EELb1EEE
__ZN6duckdb9DataTableD2Ev
__ZN6duckdb9Exception16ConstructMessageIJN14duckdb_parquet6format16CompressionCodec4typeEEEENSt3__212basic_stringIcNS6_11char_traitsIcEENS6_9allocatorIcEEEERKSC_DpT_
__ZN6duckdb9Exception16ConstructMessageIJNSt3__212basic_stringIcNS2_11char_traitsIcEENS2_9allocatorIcEEEEEEES8_RKS8_DpT_
__ZN6duckdb9Exception16ConstructMessageIJNSt3__212basic_stringIcNS2_11char_traitsIcEENS2_9allocatorIcEEEES8_EEES8_RKS8_DpT_
__ZN6duckdb9Exception16ConstructMessageIJNSt3__212basic_stringIcNS2_11char_traitsIcEENS2_9allocatorIcEEEES8_S8_EEES8_RKS8_DpT_
__ZN6duckdb9Exception16ConstructMessageIJNSt3__212basic_stringIcNS2_11char_traitsIcEENS2_9allocatorIcEEEES8_yS8_EEES8_RKS8_DpT_
__ZN6duckdb9Exception16ConstructMessageIJNSt3__212basic_stringIcNS2_11char_traitsIcEENS2_9allocatorIcEEEEmmEEES8_RKS8_DpT_
__ZN6duckdb9Exception16ConstructMessageIJPKcEEENSt3__212basic_stringIcNS4_11char_traitsIcEENS4_9allocatorIcEEEERKSA_DpT_
__ZN6duckdb9Exception16ConstructMessageIJPKcNSt3__212basic_stringIcNS4_11char_traitsIcEENS4_9allocatorIcEEEEEEESA_RKSA_DpT_
__ZN6duckdb9Exception16ConstructMessageIJPKcS3_S3_EEENSt3__212basic_stringIcNS4_11char_traitsIcEENS4_9allocatorIcEEEERKSA_DpT_
__ZN6duckdb9Exception16ConstructMessageIJPcEEENSt3__212basic_stringIcNS3_11char_traitsIcEENS3_9allocatorIcEEEERKS9_DpT_
__ZN6duckdb9Exception16ConstructMessageIJdEEENSt3__212basic_stringIcNS2_11char_traitsIcEENS2_9allocatorIcEEEERKS8_DpT_
__ZN6duckdb9Exception16ConstructMessageIJiEEENSt3__212basic_stringIcNS2_11char_traitsIcEENS2_9allocatorIcEEEERKS8_DpT_
__ZN6duckdb9Exception16ConstructMessageIJyEEENSt3__212basic_stringIcNS2_11char_traitsIcEENS2_9allocatorIcEEEERKS8_DpT_
__ZN6duckdb9Exception16ConstructMessageIJyNSt3__212basic_stringIcNS2_11char_traitsIcEENS2_9allocatorIcEEEEEEES8_RKS8_DpT_
__ZN6duckdb9Exception16ConstructMessageIJyyyEEENSt3__212basic_stringIcNS2_11char_traitsIcEENS2_9allocatorIcEEEERKS8_DpT_
__ZN6duckdb9Exception17UncaughtExceptionEv
__ZN6duckdb9Exception21ExceptionTypeToStringENS_13ExceptionTypeE
__ZN6duckdb9Exception22ThrowAsTypeWithMessageENS_13ExceptionTypeERKNSt3__212basic_stringIcNS2_11char_traitsIcEENS2_9allocatorIcEEEERKNS2_10shared_ptrIS0_EE
__ZN6duckdb9Exception25ConstructMessageRecursiveERKNSt3__212basic_stringIcNS1_11char_traitsIcEENS1_9allocatorIcEEEERNS1_6vectorINS_20ExceptionFormatValueENS5_ISB_EEEE
__ZN6duckdb9Exception25ConstructMessageRecursiveINS_11LogicalTypeEJEEENSt3__212basic_stringIcNS3_11char_traitsIcEENS3_9allocatorIcEEEERKS9_RNS3_6vectorINS_20ExceptionFormatValueENS7_ISD_EEEET_DpT0_
__ZN6duckdb9Exception25ConstructMessageRecursiveINSt3__212basic_stringIcNS2_11char_traitsIcEENS2_9allocatorIcEEEEJEEES8_RKS8_RNS2_6vectorINS_20ExceptionFormatValueENS6_ISC_EEEET_DpT0_
__ZN6duckdb9Exception25ConstructMessageRecursiveINSt3__212basic_stringIcNS2_11char_traitsIcEENS2_9allocatorIcEEEEJS8_EEES8_RKS8_RNS2_6vectorINS_20ExceptionFormatValueENS6_ISC_EEEET_DpT0_
__ZN6duckdb9Exception25ConstructMessageRecursiveINSt3__212basic_stringIcNS2_11char_traitsIcEENS2_9allocatorIcEEEEJS8_S8_EEES8_RKS8_RNS2_6vectorINS_20ExceptionFormatValueENS6_ISC_EEEET_DpT0_
__ZN6duckdb9Exception25ConstructMessageRecursiveINSt3__212basic_stringIcNS2_11char_traitsIcEENS2_9allocatorIcEEEEJS8_yS8_EEES8_RKS8_RNS2_6vectorINS_20ExceptionFormatValueENS6_ISC_EEEET_DpT0_
__ZN6duckdb9Exception25ConstructMessageRecursiveINSt3__212basic_stringIcNS2_11char_traitsIcEENS2_9allocatorIcEEEEJmmEEES8_RKS8_RNS2_6vectorINS_20ExceptionFormatValueENS6_ISC_EEEET_DpT0_
__ZN6duckdb9Exception25ConstructMessageRecursiveINSt3__212basic_stringIcNS2_11char_traitsIcEENS2_9allocatorIcEEEEJyEEES8_RKS8_RNS2_6vectorINS_20ExceptionFormatValueENS6_ISC_EEEET_DpT0_
__ZN6duckdb9Exception25ConstructMessageRecursiveINSt3__212basic_stringIcNS2_11char_traitsIcEENS2_9allocatorIcEEEEJyS8_EEES8_RKS8_RNS2_6vectorINS_20ExceptionFormatValueENS6_ISC_EEEET_DpT0_
__ZN6duckdb9Exception25ConstructMessageRecursiveIPKcJNSt3__212basic_stringIcNS4_11char_traitsIcEENS4_9allocatorIcEEEEEEESA_RKSA_RNS4_6vectorINS_20ExceptionFormatValueENS8_ISE_EEEET_DpT0_
__ZN6duckdb9Exception25ConstructMessageRecursiveIPKcJS3_EEENSt3__212basic_stringIcNS4_11char_traitsIcEENS4_9allocatorIcEEEERKSA_RNS4_6vectorINS_20ExceptionFormatValueENS8_ISE_EEEET_DpT0_
__ZN6duckdb9Exception25ConstructMessageRecursiveIhJyEEENSt3__212basic_stringIcNS2_11char_traitsIcEENS2_9allocatorIcEEEERKS8_RNS2_6vectorINS_20ExceptionFormatValueENS6_ISC_EEEET_DpT0_
__ZN6duckdb9Exception25ConstructMessageRecursiveImJmEEENSt3__212basic_stringIcNS2_11char_traitsIcEENS2_9allocatorIcEEEERKS8_RNS2_6vectorINS_20ExceptionFormatValueENS6_ISC_EEEET_DpT0_
__ZN6duckdb9Exception25ConstructMessageRecursiveIyJNSt3__212basic_stringIcNS2_11char_traitsIcEENS2_9allocatorIcEEEEEEES8_RKS8_RNS2_6vectorINS_20ExceptionFormatValueENS6_ISC_EEEET_DpT0_
__ZN6duckdb9Exception25ConstructMessageRecursiveIyJmEEENSt3__212basic_stringIcNS2_11char_traitsIcEENS2_9allocatorIcEEEERKS8_RNS2_6vectorINS_20ExceptionFormatValueENS6_ISC_EEEET_DpT0_
__ZN6duckdb9Exception25ConstructMessageRecursiveIyJyEEENSt3__212basic_stringIcNS2_11char_traitsIcEENS2_9allocatorIcEEEERKS8_RNS2_6vectorINS_20ExceptionFormatValueENS6_ISC_EEEET_DpT0_
__ZN6duckdb9ExceptionC1ENS_13ExceptionTypeERKNSt3__212basic_stringIcNS2_11char_traitsIcEENS2_9allocatorIcEEEE
__ZN6duckdb9ExceptionC1ERKNSt3__212basic_stringIcNS1_11char_traitsIcEENS1_9allocatorIcEEEE
__ZN6duckdb9ExceptionC2ENS_13ExceptionTypeERKNSt3__212basic_stringIcNS2_11char_traitsIcEENS2_9allocatorIcEEEE
__ZN6duckdb9ExceptionD2Ev
__ZN6duckdb9ExtensionD2Ev
__ZN6duckdb9HTTPState5ResetEv
__ZN6duckdb9IndexInfoD2Ev
__ZN6duckdb9ListStats13CreateUnknownENS_11LogicalTypeE
__ZN6duckdb9ListStats13GetChildStatsERNS_14BaseStatisticsE
__ZN6duckdb9ListStats13SetChildStatsERNS_14BaseStatisticsENS_10unique_ptrIS1_NSt3__214default_deleteIS1_EELb1EEE
__ZN6duckdb9ListValue11GetChildrenERKNS_5ValueE
__ZN6duckdb9MapVector7GetKeysERNS_6VectorE
__ZN6duckdb9MapVector9GetValuesERNS_6VectorE
__ZN6duckdb9QueryNode4CastINS_10SelectNodeEEERT_v
__ZN6duckdb9QueryNode4CastINS_16SetOperationNodeEEERT_v
__ZN6duckdb9Timestamp11FromCStringEPKcy
__ZN6duckdb9Timestamp11FromEpochMsEx
__ZN6duckdb9Timestamp15ConversionErrorERKNSt3__212basic_stringIcNS1_11char_traitsIcEENS1_9allocatorIcEEEE
__ZN6duckdb9Timestamp15TryFromDatetimeENS_6date_tENS_7dtime_tERNS_11timestamp_tE
__ZN6duckdb9Timestamp16FromEpochSecondsEx
__ZN6duckdb9Timestamp19GetCurrentTimestampEv
__ZN6duckdb9Timestamp20FromEpochNanoSecondsEx
__ZN6duckdb9Timestamp20GetEpochMicroSecondsENS_11timestamp_tE
__ZN6duckdb9Timestamp21FromEpochMicroSecondsEx
__ZN6duckdb9Timestamp21TryConvertTimestampTZEPKcyRNS_11timestamp_tERbRNS_8string_tE
__ZN6duckdb9Timestamp7ConvertENS_11timestamp_tERNS_6date_tERNS_7dtime_tE
__ZN6duckdb9Timestamp7GetDateENS_11timestamp_tE
__ZN6duckdb9Timestamp7GetTimeENS_11timestamp_tE
__ZN6duckdb9Timestamp8ToStringENS_11timestamp_tE
__ZN6duckdb9UnionType13GetMemberNameERKNS_11LogicalTypeEy
__ZN6duckdb9UnionType13GetMemberTypeERKNS_11LogicalTypeEy
__ZN6duckdb9UnionType14GetMemberCountERKNS_11LogicalTypeE
__ZN6duckdb9UnionType15CopyMemberTypesERKNS_11LogicalTypeE
__ZN6duckdb9hugeint_tC1Ex
__ZN6duckdb9hugeint_tpLERKS0_
__ZN6duckdb9make_uniqINS_13ParquetReaderEJRNS_13ClientContextERKNSt3__212basic_stringIcNS4_11char_traitsIcEENS4_9allocatorIcEEEERNS_14ParquetOptionsEEEENS_11__unique_ifIT_Lb1EE15__unique_singleEDpOT0_
__ZN6duckdb9make_uniqINS_13ParquetWriterEJRNS_10FileSystemERKNSt3__212basic_stringIcNS4_11char_traitsIcEENS4_9allocatorIcEEEERNS_6vectorINS_11LogicalTypeELb1EEERNSD_ISA_Lb1EEERN14duckdb_parquet6format16CompressionCodec4typeENS_13ChildFieldIDsEEEENS_11__unique_ifIT_Lb1EE15__unique_singleEDpOT0_
__ZN6duckdb9make_uniqINS_13PhysicalUnionEJRNS_6vectorINS_11LogicalTypeELb1EEENS_10unique_ptrINS_16PhysicalOperatorENSt3__214default_deleteIS7_EELb1EEESB_RyEEENS_11__unique_ifIT_Lb1EE15__unique_singleEDpOT0_
__ZN6duckdb9make_uniqINS_16EnumColumnWriterEJRNS_13ParquetWriterERKNS_11LogicalTypeERyNS_6vectorINSt3__212basic_stringIcNS9_11char_traitsIcEENS9_9allocatorIcEEEELb1EEES7_S7_RbEEENS_11__unique_ifIT_Lb1EE15__unique_singleEDpOT0_
__ZN6duckdb9make_uniqINS_16UUIDColumnWriterEJRNS_13ParquetWriterERyNS_6vectorINSt3__212basic_stringIcNS6_11char_traitsIcEENS6_9allocatorIcEEEELb1EEES4_S4_RbEEENS_11__unique_ifIT_Lb1EE15__unique_singleEDpOT0_
__ZN6duckdb9make_uniqINS_18BufferedFileWriterEJRNS_10FileSystemEPKciEEENS_11__unique_ifIT_Lb1EE15__unique_singleEDpOT0_
__ZN6duckdb9make_uniqINS_18ConstantExpressionEJNS_5ValueEEEENS_11__unique_ifIT_Lb1EE15__unique_singleEDpOT0_
__ZN6duckdb9make_uniqINS_18FunctionExpressionEJRA12_KcNS_6vectorINS_10unique_ptrINS_16ParsedExpressionENSt3__214default_deleteIS7_EELb1EEELb1EEEEEENS_11__unique_ifIT_Lb1EE15__unique_singleEDpOT0_
__ZN6duckdb9make_uniqINS_18FunctionExpressionEJRA13_KcNS_6vectorINS_10unique_ptrINS_16ParsedExpressionENSt3__214default_deleteIS7_EELb1EEELb1EEEEEENS_11__unique_ifIT_Lb1EE15__unique_singleEDpOT0_
__ZN6duckdb9make_uniqINS_18FunctionExpressionEJRA18_KcNS_6vectorINS_10unique_ptrINS_16ParsedExpressionENSt3__214default_deleteIS7_EELb1EEELb1EEEEEENS_11__unique_ifIT_Lb1EE15__unique_singleEDpOT0_
__ZN6duckdb9make_uniqINS_18FunctionExpressionEJRKPKcNS_6vectorINS_10unique_ptrINS_16ParsedExpressionENSt3__214default_deleteIS8_EELb1EEELb1EEEEEENS_11__unique_ifIT_Lb1EE15__unique_singleEDpOT0_
__ZN6duckdb9make_uniqINS_18PhysicalProjectionEJNS_6vectorINS_11LogicalTypeELb1EEENS2_INS_10unique_ptrINS_10ExpressionENSt3__214default_deleteIS6_EELb1EEELb1EEERyEEENS_11__unique_ifIT_Lb1EE15__unique_singleEDpOT0_
__ZN6duckdb9make_uniqINS_18StringColumnWriterEJRNS_13ParquetWriterERyNS_6vectorINSt3__212basic_stringIcNS6_11char_traitsIcEENS6_9allocatorIcEEEELb1EEES4_S4_RbEEENS_11__unique_ifIT_Lb1EE15__unique_singleEDpOT0_
__ZN6duckdb9make_uniqINS_18StructColumnReaderEJRNS_13ParquetReaderERKNS_11LogicalTypeERKN14duckdb_parquet6format13SchemaElementERyyyNS_6vectorINS_10unique_ptrINS_12ColumnReaderENSt3__214default_deleteISF_EELb1EEELb1EEEEEENS_11__unique_ifIT_Lb1EE15__unique_singleEDpOT0_
__ZN6duckdb9make_uniqINS_18StructColumnReaderEJRNS_13ParquetReaderERNS_11LogicalTypeERKN14duckdb_parquet6format13SchemaElementERySB_SB_NS_6vectorINS_10unique_ptrINS_12ColumnReaderENSt3__214default_deleteISE_EELb1EEELb1EEEEEENS_11__unique_ifIT_Lb1EE15__unique_singleEDpOT0_
__ZN6duckdb9make_uniqINS_19BooleanColumnWriterEJRNS_13ParquetWriterERyNS_6vectorINSt3__212basic_stringIcNS6_11char_traitsIcEENS6_9allocatorIcEEEELb1EEES4_S4_RbEEENS_11__unique_ifIT_Lb1EE15__unique_singleEDpOT0_
__ZN6duckdb9make_uniqINS_20CallbackColumnReaderIiNS_7dtime_tEXadL_ZNS_18ParquetIntToTimeMsERKiEEEEJRNS_13ParquetReaderERKNS_11LogicalTypeERKN14duckdb_parquet6format13SchemaElementERySG_SG_EEENS_11__unique_ifIT_Lb1EE15__unique_singleEDpOT0_
__ZN6duckdb9make_uniqINS_20CallbackColumnReaderIxNS_10dtime_tz_tEXadL_ZNS_18ParquetIntToTimeTZERKxEEEEJRNS_13ParquetReaderERKNS_11LogicalTypeERKN14duckdb_parquet6format13SchemaElementERySG_SG_EEENS_11__unique_ifIT_Lb1EE15__unique_singleEDpOT0_
__ZN6duckdb9make_uniqINS_20CallbackColumnReaderIxNS_11timestamp_tEXadL_ZNS_29ParquetTimestampMsToTimestampERKxEEEEJRNS_13ParquetReaderERKNS_11LogicalTypeERKN14duckdb_parquet6format13SchemaElementERySG_SG_EEENS_11__unique_ifIT_Lb1EE15__unique_singleEDpOT0_
__ZN6duckdb9make_uniqINS_20CallbackColumnReaderIxNS_11timestamp_tEXadL_ZNS_29ParquetTimestampNsToTimestampERKxEEEEJRNS_13ParquetReaderERKNS_11LogicalTypeERKN14duckdb_parquet6format13SchemaElementERySG_SG_EEENS_11__unique_ifIT_Lb1EE15__unique_singleEDpOT0_
__ZN6duckdb9make_uniqINS_20CallbackColumnReaderIxNS_11timestamp_tEXadL_ZNS_33ParquetTimestampMicrosToTimestampERKxEEEEJRNS_13ParquetReaderERKNS_11LogicalTypeERKN14duckdb_parquet6format13SchemaElementERySG_SG_EEENS_11__unique_ifIT_Lb1EE15__unique_singleEDpOT0_
__ZN6duckdb9make_uniqINS_20CallbackColumnReaderIxNS_7dtime_tEXadL_ZNS_16ParquetIntToTimeERKxEEEEJRNS_13ParquetReaderERKNS_11LogicalTypeERKN14duckdb_parquet6format13SchemaElementERySG_SG_EEENS_11__unique_ifIT_Lb1EE15__unique_singleEDpOT0_
__ZN6duckdb9make_uniqINS_20CallbackColumnReaderIxNS_7dtime_tEXadL_ZNS_18ParquetIntToTimeNsERKxEEEEJRNS_13ParquetReaderERKNS_11LogicalTypeERKN14duckdb_parquet6format13SchemaElementERySG_SG_EEENS_11__unique_ifIT_Lb1EE15__unique_singleEDpOT0_
__ZN6duckdb9make_uniqINS_20ColumnDataCollectionEJRNS_13ClientContextERNS_6vectorINS_11LogicalTypeELb1EEENS_23ColumnDataAllocatorTypeEEEENS_11__unique_ifIT_Lb1EE15__unique_singleEDpOT0_
__ZN6duckdb9make_uniqINS_20ColumnDataCollectionEJRNS_9AllocatorERKNS_6vectorINS_11LogicalTypeELb1EEEEEENS_11__unique_ifIT_Lb1EE15__unique_singleEDpOT0_
__ZN6duckdb9make_uniqINS_20IntervalColumnWriterEJRNS_13ParquetWriterERyNS_6vectorINSt3__212basic_stringIcNS6_11char_traitsIcEENS6_9allocatorIcEEEELb1EEES4_S4_RbEEENS_11__unique_ifIT_Lb1EE15__unique_singleEDpOT0_
__ZN6duckdb9make_uniqINS_20StandardColumnWriterINS_10dtime_tz_tExNS_21ParquetTimeTZOperatorEEEJRNS_13ParquetWriterERyNS_6vectorINSt3__212basic_stringIcNS9_11char_traitsIcEENS9_9allocatorIcEEEELb1EEES7_S7_RbEEENS_11__unique_ifIT_Lb1EE15__unique_singleEDpOT0_
__ZN6duckdb9make_uniqINS_20StandardColumnWriterINS_9hugeint_tEdNS_22ParquetHugeintOperatorEEEJRNS_13ParquetWriterERyNS_6vectorINSt3__212basic_stringIcNS9_11char_traitsIcEENS9_9allocatorIcEEEELb1EEES7_S7_RbEEENS_11__unique_ifIT_Lb1EE15__unique_singleEDpOT0_
__ZN6duckdb9make_uniqINS_20StandardColumnWriterIaiNS_19ParquetCastOperatorEEEJRNS_13ParquetWriterERyNS_6vectorINSt3__212basic_stringIcNS8_11char_traitsIcEENS8_9allocatorIcEEEELb1EEES6_S6_RbEEENS_11__unique_ifIT_Lb1EE15__unique_singleEDpOT0_
__ZN6duckdb9make_uniqINS_20StandardColumnWriterIddNS_19ParquetCastOperatorEEEJRNS_13ParquetWriterERyNS_6vectorINSt3__212basic_stringIcNS8_11char_traitsIcEENS8_9allocatorIcEEEELb1EEES6_S6_RbEEENS_11__unique_ifIT_Lb1EE15__unique_singleEDpOT0_
__ZN6duckdb9make_uniqINS_20StandardColumnWriterIffNS_19ParquetCastOperatorEEEJRNS_13ParquetWriterERyNS_6vectorINSt3__212basic_stringIcNS8_11char_traitsIcEENS8_9allocatorIcEEEELb1EEES6_S6_RbEEENS_11__unique_ifIT_Lb1EE15__unique_singleEDpOT0_
__ZN6duckdb9make_uniqINS_20StandardColumnWriterIhiNS_19ParquetCastOperatorEEEJRNS_13ParquetWriterERyNS_6vectorINSt3__212basic_stringIcNS8_11char_traitsIcEENS8_9allocatorIcEEEELb1EEES6_S6_RbEEENS_11__unique_ifIT_Lb1EE15__unique_singleEDpOT0_
__ZN6duckdb9make_uniqINS_20StandardColumnWriterIiiNS_19ParquetCastOperatorEEEJRNS_13ParquetWriterERyNS_6vectorINSt3__212basic_stringIcNS8_11char_traitsIcEENS8_9allocatorIcEEEELb1EEES6_S6_RbEEENS_11__unique_ifIT_Lb1EE15__unique_singleEDpOT0_
__ZN6duckdb9make_uniqINS_20StandardColumnWriterIjjNS_19ParquetCastOperatorEEEJRNS_13ParquetWriterERyNS_6vectorINSt3__212basic_stringIcNS8_11char_traitsIcEENS8_9allocatorIcEEEELb1EEES6_S6_RbEEENS_11__unique_ifIT_Lb1EE15__unique_singleEDpOT0_
__ZN6duckdb9make_uniqINS_20StandardColumnWriterIsiNS_19ParquetCastOperatorEEEJRNS_13ParquetWriterERyNS_6vectorINSt3__212basic_stringIcNS8_11char_traitsIcEENS8_9allocatorIcEEEELb1EEES6_S6_RbEEENS_11__unique_ifIT_Lb1EE15__unique_singleEDpOT0_
__ZN6duckdb9make_uniqINS_20StandardColumnWriterItiNS_19ParquetCastOperatorEEEJRNS_13ParquetWriterERyNS_6vectorINSt3__212basic_stringIcNS8_11char_traitsIcEENS8_9allocatorIcEEEELb1EEES6_S6_RbEEENS_11__unique_ifIT_Lb1EE15__unique_singleEDpOT0_
__ZN6duckdb9make_uniqINS_20StandardColumnWriterIxxNS_19ParquetCastOperatorEEEJRNS_13ParquetWriterERyNS_6vectorINSt3__212basic_stringIcNS8_11char_traitsIcEENS8_9allocatorIcEEEELb1EEES6_S6_RbEEENS_11__unique_ifIT_Lb1EE15__unique_singleEDpOT0_
__ZN6duckdb9make_uniqINS_20StandardColumnWriterIxxNS_25ParquetTimestampSOperatorEEEJRNS_13ParquetWriterERyNS_6vectorINSt3__212basic_stringIcNS8_11char_traitsIcEENS8_9allocatorIcEEEELb1EEES6_S6_RbEEENS_11__unique_ifIT_Lb1EE15__unique_singleEDpOT0_
__ZN6duckdb9make_uniqINS_20StandardColumnWriterIxxNS_26ParquetTimestampNSOperatorEEEJRNS_13ParquetWriterERyNS_6vectorINSt3__212basic_stringIcNS8_11char_traitsIcEENS8_9allocatorIcEEEELb1EEES6_S6_RbEEENS_11__unique_ifIT_Lb1EE15__unique_singleEDpOT0_
__ZN6duckdb9make_uniqINS_20StandardColumnWriterIyyNS_19ParquetCastOperatorEEEJRNS_13ParquetWriterERyNS_6vectorINSt3__212basic_stringIcNS8_11char_traitsIcEENS8_9allocatorIcEEEELb1EEES6_S6_RbEEENS_11__unique_ifIT_Lb1EE15__unique_singleEDpOT0_
__ZN6duckdb9make_uniqINS_21TemplatedColumnReaderIaNS_31TemplatedParquetValueConversionIiEEEEJRNS_13ParquetReaderERKNS_11LogicalTypeERKN14duckdb_parquet6format13SchemaElementERySF_SF_EEENS_11__unique_ifIT_Lb1EE15__unique_singleEDpOT0_
__ZN6duckdb9make_uniqINS_21TemplatedColumnReaderIdNS_31TemplatedParquetValueConversionIdEEEEJRNS_13ParquetReaderERKNS_11LogicalTypeERKN14duckdb_parquet6format13SchemaElementERySF_SF_EEENS_11__unique_ifIT_Lb1EE15__unique_singleEDpOT0_
__ZN6duckdb9make_uniqINS_21TemplatedColumnReaderIfNS_31TemplatedParquetValueConversionIfEEEEJRNS_13ParquetReaderERKNS_11LogicalTypeERKN14duckdb_parquet6format13SchemaElementERySF_SF_EEENS_11__unique_ifIT_Lb1EE15__unique_singleEDpOT0_
__ZN6duckdb9make_uniqINS_21TemplatedColumnReaderIhNS_31TemplatedParquetValueConversionIjEEEEJRNS_13ParquetReaderERKNS_11LogicalTypeERKN14duckdb_parquet6format13SchemaElementERySF_SF_EEENS_11__unique_ifIT_Lb1EE15__unique_singleEDpOT0_
__ZN6duckdb9make_uniqINS_21TemplatedColumnReaderIiNS_31TemplatedParquetValueConversionIiEEEEJRNS_13ParquetReaderERKNS_11LogicalTypeERKN14duckdb_parquet6format13SchemaElementERySF_SF_EEENS_11__unique_ifIT_Lb1EE15__unique_singleEDpOT0_
__ZN6duckdb9make_uniqINS_21TemplatedColumnReaderIiNS_31TemplatedParquetValueConversionIxEEEEJRNS_13ParquetReaderERKNS_11LogicalTypeERKN14duckdb_parquet6format13SchemaElementERySF_SF_EEENS_11__unique_ifIT_Lb1EE15__unique_singleEDpOT0_
__ZN6duckdb9make_uniqINS_21TemplatedColumnReaderIjNS_31TemplatedParquetValueConversionIjEEEEJRNS_13ParquetReaderERKNS_11LogicalTypeERKN14duckdb_parquet6format13SchemaElementERySF_SF_EEENS_11__unique_ifIT_Lb1EE15__unique_singleEDpOT0_
__ZN6duckdb9make_uniqINS_21TemplatedColumnReaderIsNS_31TemplatedParquetValueConversionIiEEEEJRNS_13ParquetReaderERKNS_11LogicalTypeERKN14duckdb_parquet6format13SchemaElementERySF_SF_EEENS_11__unique_ifIT_Lb1EE15__unique_singleEDpOT0_
__ZN6duckdb9make_uniqINS_21TemplatedColumnReaderIsNS_31TemplatedParquetValueConversionIxEEEEJRNS_13ParquetReaderERKNS_11LogicalTypeERKN14duckdb_parquet6format13SchemaElementERySF_SF_EEENS_11__unique_ifIT_Lb1EE15__unique_singleEDpOT0_
__ZN6duckdb9make_uniqINS_21TemplatedColumnReaderItNS_31TemplatedParquetValueConversionIjEEEEJRNS_13ParquetReaderERKNS_11LogicalTypeERKN14duckdb_parquet6format13SchemaElementERySF_SF_EEENS_11__unique_ifIT_Lb1EE15__unique_singleEDpOT0_
__ZN6duckdb9make_uniqINS_21TemplatedColumnReaderIxNS_31TemplatedParquetValueConversionIiEEEEJRNS_13ParquetReaderERKNS_11LogicalTypeERKN14duckdb_parquet6format13SchemaElementERySF_SF_EEENS_11__unique_ifIT_Lb1EE15__unique_singleEDpOT0_
__ZN6duckdb9make_uniqINS_21TemplatedColumnReaderIxNS_31TemplatedParquetValueConversionIxEEEEJRNS_13ParquetReaderERKNS_11LogicalTypeERKN14duckdb_parquet6format13SchemaElementERySF_SF_EEENS_11__unique_ifIT_Lb1EE15__unique_singleEDpOT0_
__ZN6duckdb9make_uniqINS_21TemplatedColumnReaderIyNS_31TemplatedParquetValueConversionIyEEEEJRNS_13ParquetReaderERKNS_11LogicalTypeERKN14duckdb_parquet6format13SchemaElementERySF_SF_EEENS_11__unique_ifIT_Lb1EE15__unique_singleEDpOT0_
__ZN6duckdb9make_uniqINS_22PhysicalColumnDataScanEJRNS_6vectorINS_11LogicalTypeELb1EEENS_20PhysicalOperatorTypeERyEEENS_11__unique_ifIT_Lb1EE15__unique_singleEDpOT0_
__ZN6duckdb9make_uniqINS_24FixedDecimalColumnWriterEJRNS_13ParquetWriterERyNS_6vectorINSt3__212basic_stringIcNS6_11char_traitsIcEENS6_9allocatorIcEEEELb1EEES4_S4_RbEEENS_11__unique_ifIT_Lb1EE15__unique_singleEDpOT0_
__ZN6duckdb9make_uniqINS_25BoundForeignKeyConstraintEJRNS_14ForeignKeyInfoENSt3__213unordered_setINS_13PhysicalIndexENS_25PhysicalIndexHashFunctionENS4_8equal_toIS6_EENS4_9allocatorIS6_EEEESC_EEENS_11__unique_ifIT_Lb1EE15__unique_singleEDpOT0_
__ZNK13duckdb_apache6thrift10TException4whatEv
__ZNK13duckdb_apache6thrift8protocol18TProtocolException4whatEv
__ZNK13duckdb_apache6thrift9transport10TTransport6isOpenEv
__ZNK13duckdb_apache6thrift9transport10TTransport9getOriginEv
__ZNK13duckdb_apache6thrift9transport13TMemoryBuffer6isOpenEv
__ZNK13duckdb_apache6thrift9transport19TTransportException4whatEv
__ZNK13duckdb_snappy15ByteArraySource9AvailableEv
__ZNK14duckdb_parquet6format10PageHeader5writeEPN13duckdb_apache6thrift8protocol9TProtocolE
__ZNK14duckdb_parquet6format10PageHeader7printToERNSt3__213basic_ostreamIcNS2_11char_traitsIcEEEE
__ZNK14duckdb_parquet6format10Statistics5writeEPN13duckdb_apache6thrift8protocol9TProtocolE
__ZNK14duckdb_parquet6format10Statistics7printToERNSt3__213basic_ostreamIcNS2_11char_traitsIcEEEE
__ZNK14duckdb_parquet6format10StringType5writeEPN13duckdb_apache6thrift8protocol9TProtocolE
__ZNK14duckdb_parquet6format10StringType7printToERNSt3__213basic_ostreamIcNS2_11char_traitsIcEEEE
__ZNK14duckdb_parquet6format11AesGcmCtrV15writeEPN13duckdb_apache6thrift8protocol9TProtocolE
__ZNK14duckdb_parquet6format11AesGcmCtrV17printToERNSt3__213basic_ostreamIcNS2_11char_traitsIcEEEE
__ZNK14duckdb_parquet6format11ColumnChunk5writeEPN13duckdb_apache6thrift8protocol9TProtocolE
__ZNK14duckdb_parquet6format11ColumnChunk7printToERNSt3__213basic_ostreamIcNS2_11char_traitsIcEEEE
__ZNK14duckdb_parquet6format11ColumnIndex5writeEPN13duckdb_apache6thrift8protocol9TProtocolE
__ZNK14duckdb_parquet6format11ColumnIndex7printToERNSt3__213basic_ostreamIcNS2_11char_traitsIcEEEE
__ZNK14duckdb_parquet6format11ColumnOrder5writeEPN13duckdb_apache6thrift8protocol9TProtocolE
__ZNK14duckdb_parquet6format11ColumnOrder7printToERNSt3__213basic_ostreamIcNS2_11char_traitsIcEEEE
__ZNK14duckdb_parquet6format11DecimalType5writeEPN13duckdb_apache6thrift8protocol9TProtocolE
__ZNK14duckdb_parquet6format11DecimalType7printToERNSt3__213basic_ostreamIcNS2_11char_traitsIcEEEE
__ZNK14duckdb_parquet6format11LogicalType5writeEPN13duckdb_apache6thrift8protocol9TProtocolE
__ZNK14duckdb_parquet6format11LogicalType7printToERNSt3__213basic_ostreamIcNS2_11char_traitsIcEEEE
__ZNK14duckdb_parquet6format11NanoSeconds5writeEPN13duckdb_apache6thrift8protocol9TProtocolE
__ZNK14duckdb_parquet6format11NanoSeconds7printToERNSt3__213basic_ostreamIcNS2_11char_traitsIcEEEE
__ZNK14duckdb_parquet6format11OffsetIndex5writeEPN13duckdb_apache6thrift8protocol9TProtocolE
__ZNK14duckdb_parquet6format11OffsetIndex7printToERNSt3__213basic_ostreamIcNS2_11char_traitsIcEEEE
__ZNK14duckdb_parquet6format12FileMetaData5writeEPN13duckdb_apache6thrift8protocol9TProtocolE
__ZNK14duckdb_parquet6format12FileMetaData7printToERNSt3__213basic_ostreamIcNS2_11char_traitsIcEEEE
__ZNK14duckdb_parquet6format12MicroSeconds5writeEPN13duckdb_apache6thrift8protocol9TProtocolE
__ZNK14duckdb_parquet6format12MicroSeconds7printToERNSt3__213basic_ostreamIcNS2_11char_traitsIcEEEE
__ZNK14duckdb_parquet6format12MilliSeconds5writeEPN13duckdb_apache6thrift8protocol9TProtocolE
__ZNK14duckdb_parquet6format12MilliSeconds7printToERNSt3__213basic_ostreamIcNS2_11char_traitsIcEEEE
__ZNK14duckdb_parquet6format12PageLocation5writeEPN13duckdb_apache6thrift8protocol9TProtocolE
__ZNK14duckdb_parquet6format12PageLocation7printToERNSt3__213basic_ostreamIcNS2_11char_traitsIcEEEE
__ZNK14duckdb_parquet6format13SchemaElement5writeEPN13duckdb_apache6thrift8protocol9TProtocolE
__ZNK14duckdb_parquet6format13SchemaElement7printToERNSt3__213basic_ostreamIcNS2_11char_traitsIcEEEE
__ZNK14duckdb_parquet6format13SortingColumn5writeEPN13duckdb_apache6thrift8protocol9TProtocolE
__ZNK14duckdb_parquet6format13SortingColumn7printToERNSt3__213basic_ostreamIcNS2_11char_traitsIcEEEE
__ZNK14duckdb_parquet6format13TimestampType5writeEPN13duckdb_apache6thrift8protocol9TProtocolE
__ZNK14duckdb_parquet6format13TimestampType7printToERNSt3__213basic_ostreamIcNS2_11char_traitsIcEEEE
__ZNK14duckdb_parquet6format14ColumnMetaData5writeEPN13duckdb_apache6thrift8protocol9TProtocolE
__ZNK14duckdb_parquet6format14ColumnMetaData7printToERNSt3__213basic_ostreamIcNS2_11char_traitsIcEEEE
__ZNK14duckdb_parquet6format14DataPageHeader5writeEPN13duckdb_apache6thrift8protocol9TProtocolE
__ZNK14duckdb_parquet6format14DataPageHeader7printToERNSt3__213basic_ostreamIcNS2_11char_traitsIcEEEE
__ZNK14duckdb_parquet6format15IndexPageHeader5writeEPN13duckdb_apache6thrift8protocol9TProtocolE
__ZNK14duckdb_parquet6format15IndexPageHeader7printToERNSt3__213basic_ostreamIcNS2_11char_traitsIcEEEE
__ZNK14duckdb_parquet6format16DataPageHeaderV25writeEPN13duckdb_apache6thrift8protocol9TProtocolE
__ZNK14duckdb_parquet6format16DataPageHeaderV27printToERNSt3__213basic_ostreamIcNS2_11char_traitsIcEEEE
__ZNK14duckdb_parquet6format16TypeDefinedOrder5writeEPN13duckdb_apache6thrift8protocol9TProtocolE
__ZNK14duckdb_parquet6format16TypeDefinedOrder7printToERNSt3__213basic_ostreamIcNS2_11char_traitsIcEEEE
__ZNK14duckdb_parquet6format17PageEncodingStats5writeEPN13duckdb_apache6thrift8protocol9TProtocolE
__ZNK14duckdb_parquet6format17PageEncodingStats7printToERNSt3__213basic_ostreamIcNS2_11char_traitsIcEEEE
__ZNK14duckdb_parquet6format18FileCryptoMetaData5writeEPN13duckdb_apache6thrift8protocol9TProtocolE
__ZNK14duckdb_parquet6format18FileCryptoMetaData7printToERNSt3__213basic_ostreamIcNS2_11char_traitsIcEEEE
__ZNK14duckdb_parquet6format19EncryptionAlgorithm5writeEPN13duckdb_apache6thrift8protocol9TProtocolE
__ZNK14duckdb_parquet6format19EncryptionAlgorithm7printToERNSt3__213basic_ostreamIcNS2_11char_traitsIcEEEE
__ZNK14duckdb_parquet6format20ColumnCryptoMetaData5writeEPN13duckdb_apache6thrift8protocol9TProtocolE
__ZNK14duckdb_parquet6format20ColumnCryptoMetaData7printToERNSt3__213basic_ostreamIcNS2_11char_traitsIcEEEE
__ZNK14duckdb_parquet6format20DictionaryPageHeader5writeEPN13duckdb_apache6thrift8protocol9TProtocolE
__ZNK14duckdb_parquet6format20DictionaryPageHeader7printToERNSt3__213basic_ostreamIcNS2_11char_traitsIcEEEE
__ZNK14duckdb_parquet6format23EncryptionWithColumnKey5writeEPN13duckdb_apache6thrift8protocol9TProtocolE
__ZNK14duckdb_parquet6format23EncryptionWithColumnKey7printToERNSt3__213basic_ostreamIcNS2_11char_traitsIcEEEE
__ZNK14duckdb_parquet6format23EncryptionWithFooterKey5writeEPN13duckdb_apache6thrift8protocol9TProtocolE
__ZNK14duckdb_parquet6format23EncryptionWithFooterKey7printToERNSt3__213basic_ostreamIcNS2_11char_traitsIcEEEE
__ZNK14duckdb_parquet6format7IntType5writeEPN13duckdb_apache6thrift8protocol9TProtocolE
__ZNK14duckdb_parquet6format7IntType7printToERNSt3__213basic_ostreamIcNS2_11char_traitsIcEEEE
__ZNK14duckdb_parquet6format7MapType5writeEPN13duckdb_apache6thrift8protocol9TProtocolE
__ZNK14duckdb_parquet6format7MapType7printToERNSt3__213basic_ostreamIcNS2_11char_traitsIcEEEE
__ZNK14duckdb_parquet6format8AesGcmV15writeEPN13duckdb_apache6thrift8protocol9TProtocolE
__ZNK14duckdb_parquet6format8AesGcmV17printToERNSt3__213basic_ostreamIcNS2_11char_traitsIcEEEE
__ZNK14duckdb_parquet6format8BsonType5writeEPN13duckdb_apache6thrift8protocol9TProtocolE
__ZNK14duckdb_parquet6format8BsonType7printToERNSt3__213basic_ostreamIcNS2_11char_traitsIcEEEE
__ZNK14duckdb_parquet6format8DateType5writeEPN13duckdb_apache6thrift8protocol9TProtocolE
__ZNK14duckdb_parquet6format8DateType7printToERNSt3__213basic_ostreamIcNS2_11char_traitsIcEEEE
__ZNK14duckdb_parquet6format8EnumType5writeEPN13duckdb_apache6thrift8protocol9TProtocolE
__ZNK14duckdb_parquet6format8EnumType7printToERNSt3__213basic_ostreamIcNS2_11char_traitsIcEEEE
__ZNK14duckdb_parquet6format8JsonType5writeEPN13duckdb_apache6thrift8protocol9TProtocolE
__ZNK14duckdb_parquet6format8JsonType7printToERNSt3__213basic_ostreamIcNS2_11char_traitsIcEEEE
__ZNK14duckdb_parquet6format8KeyValue5writeEPN13duckdb_apache6thrift8protocol9TProtocolE
__ZNK14duckdb_parquet6format8KeyValue7printToERNSt3__213basic_ostreamIcNS2_11char_traitsIcEEEE
__ZNK14duckdb_parquet6format8ListType5writeEPN13duckdb_apache6thrift8protocol9TProtocolE
__ZNK14duckdb_parquet6format8ListType7printToERNSt3__213basic_ostreamIcNS2_11char_traitsIcEEEE
__ZNK14duckdb_parquet6format8NullType5writeEPN13duckdb_apache6thrift8protocol9TProtocolE
__ZNK14duckdb_parquet6format8NullType7printToERNSt3__213basic_ostreamIcNS2_11char_traitsIcEEEE
__ZNK14duckdb_parquet6format8RowGroup5writeEPN13duckdb_apache6thrift8protocol9TProtocolE
__ZNK14duckdb_parquet6format8RowGroup7printToERNSt3__213basic_ostreamIcNS2_11char_traitsIcEEEE
__ZNK14duckdb_parquet6format8TimeType5writeEPN13duckdb_apache6thrift8protocol9TProtocolE
__ZNK14duckdb_parquet6format8TimeType7printToERNSt3__213basic_ostreamIcNS2_11char_traitsIcEEEE
__ZNK14duckdb_parquet6format8TimeUnit5writeEPN13duckdb_apache6thrift8protocol9TProtocolE
__ZNK14duckdb_parquet6format8TimeUnit7printToERNSt3__213basic_ostreamIcNS2_11char_traitsIcEEEE
__ZNK14duckdb_parquet6format8UUIDType5writeEPN13duckdb_apache6thrift8protocol9TProtocolE
__ZNK14duckdb_parquet6format8UUIDType7printToERNSt3__213basic_ostreamIcNS2_11char_traitsIcEEEE
__ZNK6duckdb10ColumnList4CopyEv
__ZNK6duckdb10ColumnList7LogicalEv
__ZNK6duckdb10ColumnList9GetColumnENS_12LogicalIndexE
__ZNK6duckdb10ColumnList9GetColumnENS_13PhysicalIndexE
__ZNK6duckdb10CreateInfo12GetAlterInfoEv
__ZNK6duckdb10CreateInfo8ToStringEv
__ZNK6duckdb10CreateInfo9SerializeERNS_10SerializerE
__ZNK6duckdb10unique_ptrINS_11QueryResultENSt3__214default_deleteIS1_EELb1EEptEv
__ZNK6duckdb10unique_ptrINS_17PreparedStatementENSt3__214default_deleteIS1_EELb1EEptEv
__ZNK6duckdb10unique_ptrINS_18PendingQueryResultENSt3__214default_deleteIS1_EELb1EEptEv
__ZNK6duckdb11LogicalType20GetDecimalPropertiesERhS1_
__ZNK6duckdb11LogicalType8GetAliasEv
__ZNK6duckdb11LogicalType8HasAliasEv
__ZNK6duckdb11LogicalType8ToStringEv
__ZNK6duckdb11LogicalType9SerializeERNS_10SerializerE
__ZNK6duckdb11LogicalTypeeqERKS0_
__ZNK6duckdb11MyTransport6isOpenEv
__ZNK6duckdb11Transaction17IsDuckTransactionEv
__ZNK6duckdb12CatalogEntry4CopyERNS_13ClientContextE
__ZNK6duckdb12ColumnReader10FileOffsetEv
__ZNK6duckdb12MemoryStream11GetPositionEv
__ZNK6duckdb12MemoryStream7GetDataEv
__ZNK6duckdb12MetaPipeline8GetStateEv
__ZNK6duckdb12optional_idx8GetIndexEv
__ZNK6duckdb12optional_ptrIKNS_12FunctionDataEE10CheckValidEv
__ZNK6duckdb12optional_ptrIKNS_13ChildFieldIDsEE10CheckValidEv
__ZNK6duckdb12optional_ptrIKNS_5ValueEE10CheckValidEv
__ZNK6duckdb12optional_ptrIKNS_7FieldIDEE10CheckValidEv
__ZNK6duckdb12optional_ptrINS_11TransactionEE10CheckValidEv
__ZNK6duckdb12optional_ptrINS_12CatalogEntryEE10CheckValidEv
__ZNK6duckdb12optional_ptrINS_12FunctionDataEE10CheckValidEv
__ZNK6duckdb12optional_ptrINS_13BoundCastDataEE10CheckValidEv
__ZNK6duckdb12optional_ptrINS_13ClientContextEE10CheckValidEv
__ZNK6duckdb12optional_ptrINS_14TableFilterSetEE10CheckValidEv
__ZNK6duckdb12optional_ptrINS_16AttachedDatabaseEE10CheckValidEv
__ZNK6duckdb12optional_ptrINS_17TableCatalogEntryEE10CheckValidEv
__ZNK6duckdb12optional_ptrINS_17TableFunctionInfoEE10CheckValidEv
__ZNK6duckdb12optional_ptrINS_18FunctionLocalStateEE10CheckValidEv
__ZNK6duckdb12optional_ptrINS_23LocalTableFunctionStateEE10CheckValidEv
__ZNK6duckdb12optional_ptrINS_24CopyFunctionCatalogEntryEE10CheckValidEv
__ZNK6duckdb12optional_ptrINS_24GlobalTableFunctionStateEE10CheckValidEv
__ZNK6duckdb13ColumnBinding9SerializeERNS_10SerializerE
__ZNK6duckdb13HTTPException4CopyEv
__ZNK6duckdb13QueryProfiler6ToJSONEv
__ZNK6duckdb14BaseExpression4CastINS_23BoundFunctionExpressionEEERKT_v
__ZNK6duckdb14BaseStatistics12GetStatsTypeEv
__ZNK6duckdb14BaseStatistics8ToUniqueEv
__ZNK6duckdb14BaseStatistics9SerializeERNS_10SerializerE
__ZNK6duckdb14DuckTableEntry11IsDuckTableEv
__ZNK6duckdb14InterruptState8CallbackEv
__ZNK6duckdb14PhysicalDetach7GetDataERNS_16ExecutionContextERNS_9DataChunkERNS_19OperatorSourceInputE
__ZNK6duckdb14PreservedError5ThrowERKNSt3__212basic_stringIcNS1_11char_traitsIcEENS1_9allocatorIcEEEE
__ZNK6duckdb14StrpTimeFormat12TryParseDateENS_8string_tERNS_6date_tERNSt3__212basic_stringIcNS4_11char_traitsIcEENS4_9allocatorIcEEEE
__ZNK6duckdb14StrpTimeFormat17TryParseTimestampENS_8string_tERNS_11timestamp_tERNSt3__212basic_stringIcNS4_11char_traitsIcEENS4_9allocatorIcEEEE
__ZNK6duckdb14StrpTimeFormat5ParseENS_8string_tERNS0_11ParseResultE
__ZNK6duckdb14ZStdFileSystem7GetNameEv
__ZNK6duckdb15BaseQueryResult10ThrowErrorERKNSt3__212basic_stringIcNS1_11char_traitsIcEENS1_9allocatorIcEEEE
__ZNK6duckdb15BaseQueryResult8HasErrorEv
__ZNK6duckdb15LogicalOperator13GetTableIndexEv
__ZNK6duckdb15LogicalOperator14ParamsToStringEv
__ZNK6duckdb15LogicalOperator16RequireOptimizerEv
__ZNK6duckdb15LogicalOperator20SupportSerializationEv
__ZNK6duckdb15LogicalOperator4CopyERNS_13ClientContextE
__ZNK6duckdb15LogicalOperator7GetNameEv
__ZNK6duckdb15LogicalOperator8ToStringEv
__ZNK6duckdb15SelectStatement9SerializeERNS_10SerializerE
__ZNK6duckdb16AttachedDatabase11IsTemporaryEv
__ZNK6duckdb16AttachedDatabase8IsSystemEv
__ZNK6duckdb16CastColumnReader10FileOffsetEv
__ZNK6duckdb16ColumnDefinition4NameEv
__ZNK6duckdb16ColumnDefinition4TypeEv
__ZNK6duckdb16ColumnDefinition7GetNameEv
__ZNK6duckdb16ColumnDefinition7GetTypeEv
__ZNK6duckdb16ColumnDefinition7LogicalEv
__ZNK6duckdb16PhysicalOperator10GetSourcesEv
__ZNK6duckdb16PhysicalOperator11GetChildrenEv
__ZNK6duckdb16PhysicalOperator11GetProgressERNS_13ClientContextERNS_17GlobalSourceStateE
__ZNK6duckdb16PhysicalOperator11SourceOrderEv
__ZNK6duckdb16PhysicalOperator12FinalExecuteERNS_16ExecutionContextERNS_9DataChunkERNS_19GlobalOperatorStateERNS_13OperatorStateE
__ZNK6duckdb16PhysicalOperator12ParallelSinkEv
__ZNK6duckdb16PhysicalOperator13GetBatchIndexERNS_16ExecutionContextERNS_9DataChunkERNS_17GlobalSourceStateERNS_16LocalSourceStateE
__ZNK6duckdb16PhysicalOperator13OperatorOrderEv
__ZNK6duckdb16PhysicalOperator14ParallelSourceEv
__ZNK6duckdb16PhysicalOperator14ParamsToStringEv
__ZNK6duckdb16PhysicalOperator16GetOperatorStateERNS_16ExecutionContextE
__ZNK6duckdb16PhysicalOperator16ParallelOperatorEv
__ZNK6duckdb16PhysicalOperator17GetLocalSinkStateERNS_16ExecutionContextE
__ZNK6duckdb16PhysicalOperator18GetGlobalSinkStateERNS_13ClientContextE
__ZNK6duckdb16PhysicalOperator18RequiresBatchIndexEv
__ZNK6duckdb16PhysicalOperator18SinkOrderDependentEv
__ZNK6duckdb16PhysicalOperator18SupportsBatchIndexEv
__ZNK6duckdb16PhysicalOperator19GetLocalSourceStateERNS_16ExecutionContextERNS_17GlobalSourceStateE
__ZNK6duckdb16PhysicalOperator20GetGlobalSourceStateERNS_13ClientContextE
__ZNK6duckdb16PhysicalOperator20RequiresFinalExecuteEv
__ZNK6duckdb16PhysicalOperator22GetGlobalOperatorStateERNS_13ClientContextE
__ZNK6duckdb16PhysicalOperator4SinkERNS_16ExecutionContextERNS_9DataChunkERNS_17OperatorSinkInputE
__ZNK6duckdb16PhysicalOperator6EqualsERKS0_
__ZNK6duckdb16PhysicalOperator6IsSinkEv
__ZNK6duckdb16PhysicalOperator7CombineERNS_16ExecutionContextERNS_24OperatorSinkCombineInputE
__ZNK6duckdb16PhysicalOperator7ExecuteERNS_16ExecutionContextERNS_9DataChunkES4_RNS_19GlobalOperatorStateERNS_13OperatorStateE
__ZNK6duckdb16PhysicalOperator7GetDataERNS_16ExecutionContextERNS_9DataChunkERNS_19OperatorSourceInputE
__ZNK6duckdb16PhysicalOperator7GetNameEv
__ZNK6duckdb16PhysicalOperator8FinalizeERNS_8PipelineERNS_5EventERNS_13ClientContextERNS_25OperatorSinkFinalizeInputE
__ZNK6duckdb16PhysicalOperator8IsSourceEv
__ZNK6duckdb16PhysicalOperator8ToStringEv
__ZNK6duckdb16PhysicalOperator9NextBatchERNS_16ExecutionContextERNS_26OperatorSinkNextBatchInputE
__ZNK6duckdb17IndexCatalogEntry5ToSQLEv
__ZNK6duckdb17IndexCatalogEntry7GetInfoEv
__ZNK6duckdb17TableCatalogEntry10GetColumnsEv
__ZNK6duckdb17TableCatalogEntry11IsDuckTableEv
__ZNK6duckdb17TableCatalogEntry5ToSQLEv
__ZNK6duckdb17TableCatalogEntry7GetInfoEv
__ZNK6duckdb17TableFunctionData4CopyEv
__ZNK6duckdb17TableFunctionData6EqualsERKNS_12FunctionDataE
__ZNK6duckdb17TableScanBindData6EqualsERKNS_12FunctionDataE
__ZNK6duckdb18BaseScalarFunction8ToStringEv
__ZNK6duckdb18SchemaCatalogEntry5ToSQLEv
__ZNK6duckdb18SchemaCatalogEntry7GetInfoEv
__ZNK6duckdb20ColumnDataCollection11SizeInBytesEv
__ZNK6duckdb20ColumnDataCollection14InitializeScanERNS_19ColumnDataScanStateENS_24ColumnDataScanPropertiesE
__ZNK6duckdb20ColumnDataCollection4ScanERNS_19ColumnDataScanStateERNS_9DataChunkE
__ZNK6duckdb20ColumnDataCollection6ChunksENS_6vectorIyLb1EEE
__ZNK6duckdb21RowNumberColumnReader10FileOffsetEv
__ZNK6duckdb22MultiFileReaderOptions12AddBatchInfoERNS_8BindInfoE
__ZNK6duckdb22MultiFileReaderOptions9SerializeERNS_10SerializerE
__ZNK6duckdb22ParquetReadGlobalState10MaxThreadsEv
__ZNK6duckdb22VariableReturnBindData4CopyEv
__ZNK6duckdb22VariableReturnBindData6EqualsERKNS_12FunctionDataE
__ZNK6duckdb23MaterializedQueryResult8RowCountEv
__ZNK6duckdb23MultiFileReaderBindData9SerializeERNS_10SerializerE
__ZNK6duckdb23ParquetMetaDataBindData6EqualsERKNS_12FunctionDataE
__ZNK6duckdb24GlobalTableFunctionState10MaxThreadsEv
__ZNK6duckdb24LogicalExtensionOperator16GetExtensionNameEv
__ZNK6duckdb24LogicalExtensionOperator9SerializeERNS_10SerializerE
__ZNK6duckdb28SimpleNamedParameterFunction8ToStringEv
__ZNK6duckdb30ColumnDataChunkIterationHelper23ColumnDataChunkIteratordeEv
__ZNK6duckdb30ColumnDataChunkIterationHelper23ColumnDataChunkIteratorneERKS1_
__ZNK6duckdb5Value13DefaultCastAsERKNS_11LogicalTypeEb
__ZNK6duckdb5Value14GetValueUnsafeINS_8string_tEEET_v
__ZNK6duckdb5Value14GetValueUnsafeINS_9hugeint_tEEET_v
__ZNK6duckdb5Value14GetValueUnsafeINSt3__212basic_stringIcNS2_11char_traitsIcEENS2_9allocatorIcEEEEEET_v
__ZNK6duckdb5Value14GetValueUnsafeIaEET_v
__ZNK6duckdb5Value14GetValueUnsafeIbEET_v
__ZNK6duckdb5Value14GetValueUnsafeIdEET_v
__ZNK6duckdb5Value14GetValueUnsafeIfEET_v
__ZNK6duckdb5Value14GetValueUnsafeIhEET_v
__ZNK6duckdb5Value14GetValueUnsafeIiEET_v
__ZNK6duckdb5Value14GetValueUnsafeIjEET_v
__ZNK6duckdb5Value14GetValueUnsafeIsEET_v
__ZNK6duckdb5Value14GetValueUnsafeItEET_v
__ZNK6duckdb5Value14GetValueUnsafeIxEET_v
__ZNK6duckdb5Value14GetValueUnsafeIyEET_v
__ZNK6duckdb5Value6CastAsERNS_13ClientContextERKNS_11LogicalTypeEb
__ZNK6duckdb5Value8GetValueINS_10interval_tEEET_v
__ZNK6duckdb5Value8GetValueINS_11timestamp_tEEET_v
__ZNK6duckdb5Value8GetValueINS_6date_tEEET_v
__ZNK6duckdb5Value8GetValueINS_7dtime_tEEET_v
__ZNK6duckdb5Value8GetValueINS_9hugeint_tEEET_v
__ZNK6duckdb5Value8GetValueINSt3__212basic_stringIcNS2_11char_traitsIcEENS2_9allocatorIcEEEEEET_v
__ZNK6duckdb5Value8GetValueIS0_EET_v
__ZNK6duckdb5Value8GetValueIaEET_v
__ZNK6duckdb5Value8GetValueIbEET_v
__ZNK6duckdb5Value8GetValueIdEET_v
__ZNK6duckdb5Value8GetValueIfEET_v
__ZNK6duckdb5Value8GetValueIiEET_v
__ZNK6duckdb5Value8GetValueIsEET_v
__ZNK6duckdb5Value8GetValueIxEET_v
__ZNK6duckdb5Value8GetValueIyEET_v
__ZNK6duckdb5Value8ToStringEv
__ZNK6duckdb5Value9SerializeERNS_10SerializerE
__ZNK6duckdb6Vector8GetValueEy
__ZNK6duckdb6Vector8ToStringEv
__ZNK6duckdb8DBConfig9UserAgentEv
__ZNK6duckdb8Pipeline5PrintEv
__ZNK6duckdb8string_t9GetStringEv
__ZNK6duckdb9DataChunk11AllConstantEv
__ZNK6duckdb9DataChunk8GetValueEyy
__ZNK6duckdb9DataChunk9SerializeERNS_10SerializerE
__ZNK6duckdb9Exception10RawMessageEv
__ZNK6duckdb9Exception4CopyEv
__ZNK6duckdb9Exception4whatEv
__ZNK6duckdb9hugeint_t8ToStringEv
__ZNK6duckdb9hugeint_tanERKS0_
__ZNK6duckdb9hugeint_teqERKS0_
__ZNK6duckdb9hugeint_tgeERKS0_
__ZNK6duckdb9hugeint_tleERKS0_
__ZNK6duckdb9hugeint_tltERKS0_
__ZNK6duckdb9hugeint_tmiERKS0_
__ZNK6duckdb9hugeint_tneERKS0_
__ZNK6duckdb9hugeint_tngEv
__ZNK6duckdb9hugeint_tplERKS0_
__ZNK6duckdb9hugeint_trsERKS0_
__ZNKSt3__211__move_loopINS_17_ClassicAlgPolicyEEclB8ue170004IPN6duckdb10unique_ptrINS4_13ParquetReaderENS_14default_deleteIS6_EELb1EEESA_NS_20back_insert_iteratorINS4_6vectorINS_10shared_ptrIS6_EELb1EEEEEEENS_4pairIT_T1_EESI_T0_SJ_
__ZNKSt3__211basic_regexIcNS_12regex_traitsIcEEE21__match_at_start_ecmaINS_9allocatorINS_9sub_matchIPKcEEEEEEbS8_S8_RNS_13match_resultsIS8_T_EENS_15regex_constants15match_flag_typeEb
__ZNKSt3__211basic_regexIcNS_12regex_traitsIcEEE27__match_at_start_posix_subsINS_9allocatorINS_9sub_matchIPKcEEEEEEbS8_S8_RNS_13match_resultsIS8_T_EENS_15regex_constants15match_flag_typeEb
__ZNKSt3__211basic_regexIcNS_12regex_traitsIcEEE29__match_at_start_posix_nosubsINS_9allocatorINS_9sub_matchIPKcEEEEEEbS8_S8_RNS_13match_resultsIS8_T_EENS_15regex_constants15match_flag_typeEb
__ZNKSt3__211basic_regexIcNS_12regex_traitsIcEEE8__searchINS_9allocatorINS_9sub_matchIPKcEEEEEEbS8_S8_RNS_13match_resultsIS8_T_EENS_15regex_constants15match_flag_typeE
__ZNKSt3__212__hash_tableINS_12basic_stringIcNS_11char_traitsIcEENS_9allocatorIcEEEEN6duckdb33CaseInsensitiveStringHashFunctionENS7_29CaseInsensitiveStringEqualityENS4_IS6_EEE4findIS6_EENS_21__hash_const_iteratorIPNS_11__hash_nodeIS6_PvEEEERKT_
__ZNKSt3__212__hash_tableINS_12basic_stringIcNS_11char_traitsIcEENS_9allocatorIcEEEENS_4hashIS6_EENS_8equal_toIS6_EENS4_IS6_EEE4findIS6_EENS_21__hash_const_iteratorIPNS_11__hash_nodeIS6_PvEEEERKT_
__ZNKSt3__212__hash_tableINS_17__hash_value_typeIN6duckdb8string_tEjEENS_22__unordered_map_hasherIS3_S4_NS2_10StringHashENS2_14StringEqualityELb1EEENS_21__unordered_map_equalIS3_S4_S7_S6_Lb1EEENS_9allocatorIS4_EEE4findIS3_EENS_21__hash_const_iteratorIPNS_11__hash_nodeIS4_PvEEEERKT_
__ZNKSt3__212__hash_tableINS_17__hash_value_typeINS_12basic_stringIcNS_11char_traitsIcEENS_9allocatorIcEEEEN6duckdb11LogicalTypeEEENS_22__unordered_map_hasherIS7_SA_NS8_33CaseInsensitiveStringHashFunctionENS8_29CaseInsensitiveStringEqualityELb1EEENS_21__unordered_map_equalIS7_SA_SD_SC_Lb1EEENS5_ISA_EEE4findIS7_EENS_21__hash_const_iteratorIPNS_11__hash_nodeISA_PvEEEERKT_
__ZNKSt3__212__hash_tableINS_17__hash_value_typeINS_12basic_stringIcNS_11char_traitsIcEENS_9allocatorIcEEEEN6duckdb5ValueEEENS_22__unordered_map_hasherIS7_SA_NS8_33CaseInsensitiveStringHashFunctionENS8_29CaseInsensitiveStringEqualityELb1EEENS_21__unordered_map_equalIS7_SA_SD_SC_Lb1EEENS5_ISA_EEE4findIS7_EENS_21__hash_const_iteratorIPNS_11__hash_nodeISA_PvEEEERKT_
__ZNKSt3__212basic_stringIcNS_11char_traitsIcEENS_9allocatorIcEEE2atEm
__ZNKSt3__212basic_stringIcNS_11char_traitsIcEENS_9allocatorIcEEE4findEPKcmm
__ZNKSt3__212basic_stringIcNS_11char_traitsIcEENS_9allocatorIcEEE4findEcm
__ZNKSt3__212basic_stringIcNS_11char_traitsIcEENS_9allocatorIcEEE5rfindEcm
__ZNKSt3__212basic_stringIcNS_11char_traitsIcEENS_9allocatorIcEEE7compareEmmPKc
__ZNKSt3__212basic_stringIwNS_11char_traitsIwEENS_9allocatorIwEEE2atEm
__ZNKSt3__212basic_stringIwNS_11char_traitsIwEENS_9allocatorIwEEE4findEwm
__ZNKSt3__212regex_traitsIcE19__transform_primaryINS_11__wrap_iterIPcEEEENS_12basic_stringIcNS_11char_traitsIcEENS_9allocatorIcEEEET_SC_c
__ZNKSt3__212regex_traitsIcE19__transform_primaryIPcEENS_12basic_stringIcNS_11char_traitsIcEENS_9allocatorIcEEEET_SA_c
__ZNKSt3__212regex_traitsIcE20__lookup_collatenameIPcEENS_12basic_stringIcNS_11char_traitsIcEENS_9allocatorIcEEEET_SA_c
__ZNKSt3__212regex_traitsIcE9transformINS_11__wrap_iterIPcEEEENS_12basic_stringIcNS_11char_traitsIcEENS_9allocatorIcEEEET_SC_
__ZNKSt3__212regex_traitsIcE9transformIPcEENS_12basic_stringIcNS_11char_traitsIcEENS_9allocatorIcEEEET_SA_
__ZNKSt3__215basic_stringbufIcNS_11char_traitsIcEENS_9allocatorIcEEE3strEv
__ZNKSt3__219__shared_weak_count13__get_deleterERKSt9type_info
__ZNKSt3__223__match_any_but_newlineIcE6__execERNS_7__stateIcEE
__ZNKSt3__26locale4nameEv
__ZNKSt3__26locale9use_facetERNS0_2idE
__ZNKSt3__28ios_base6getlocEv
__ZNKSt3__28time_putIcNS_19ostreambuf_iteratorIcNS_11char_traitsIcEEEEE3putES4_RNS_8ios_baseEcPK2tmPKcSC_
__ZNSt11logic_errorC2EPKc
__ZNSt11logic_errorC2ERKNSt3__212basic_stringIcNS0_11char_traitsIcEENS0_9allocatorIcEEEE
__ZNSt11logic_errorC2ERKS_
__ZNSt12domain_errorD1Ev
__ZNSt12length_errorD1Ev
__ZNSt12out_of_rangeD1Ev
__ZNSt13exception_ptrC1ERKS_
__ZNSt13exception_ptrD1Ev
__ZNSt13runtime_errorC1EPKc
__ZNSt13runtime_errorC1ERKNSt3__212basic_stringIcNS0_11char_traitsIcEENS0_9allocatorIcEEEE
__ZNSt13runtime_errorD1Ev
__ZNSt16invalid_argumentD1Ev
__ZNSt20bad_array_new_lengthC1Ev
__ZNSt20bad_array_new_lengthD1Ev
__ZNSt3__210__back_refIcED0Ev
__ZNSt3__210__function6__funcIPFvRN6duckdb9DataChunkERNS2_15ExpressionStateERNS2_6VectorEENS_9allocatorISA_EES9_ED0Ev
__ZNSt3__210to_wstringEi
__ZNSt3__211__alternateIcED0Ev
__ZNSt3__211__call_onceERVmPvPFvS2_E
__ZNSt3__211__end_stateIcED0Ev
__ZNSt3__211__lookaheadIcNS_12regex_traitsIcEEED0Ev
__ZNSt3__211__lookaheadIcNS_12regex_traitsIcEEED2Ev
__ZNSt3__211__match_anyIcED0Ev
__ZNSt3__211basic_regexIcNS_12regex_traitsIcEEE11__push_charEc
__ZNSt3__211basic_regexIcNS_12regex_traitsIcEEE11__push_loopEmmPNS_16__owns_one_stateIcEEmmb
__ZNSt3__211basic_regexIcNS_12regex_traitsIcEEE15__push_back_refEi
__ZNSt3__211basic_regexIcNS_12regex_traitsIcEEE15__test_back_refEc
__ZNSt3__211basic_regexIcNS_12regex_traitsIcEEE16__push_lookaheadERKS3_bj
__ZNSt3__211basic_regexIcNS_12regex_traitsIcEEED2Ev
__ZNSt3__211regex_errorC1ENS_15regex_constants10error_typeE
__ZNSt3__211regex_errorD1Ev
__ZNSt3__211this_thread9sleep_forERKNS_6chrono8durationIxNS_5ratioILx1ELx1000000000EEEEE
__ZNSt3__211unique_lockINS_5mutexEE4lockEv
__ZNSt3__211unique_lockINS_5mutexEE6unlockEv
__ZNSt3__212__hash_tableIN6duckdb12LogicalIndexENS1_24LogicalIndexHashFunctionENS_8equal_toIS2_EENS_9allocatorIS2_EEE11__do_rehashILb1EEEvm
__ZNSt3__212__hash_tableIN6duckdb12LogicalIndexENS1_24LogicalIndexHashFunctionENS_8equal_toIS2_EENS_9allocatorIS2_EEE25__emplace_unique_key_argsIS2_JRKS2_EEENS_4pairINS_15__hash_iteratorIPNS_11__hash_nodeIS2_PvEEEEbEERKT_DpOT0_
__ZNSt3__212__hash_tableIN6duckdb13PhysicalIndexENS1_25PhysicalIndexHashFunctionENS_8equal_toIS2_EENS_9allocatorIS2_EEE11__do_rehashILb1EEEvm
__ZNSt3__212__hash_tableIN6duckdb13PhysicalIndexENS1_25PhysicalIndexHashFunctionENS_8equal_toIS2_EENS_9allocatorIS2_EEE25__emplace_unique_key_argsIS2_JRKS2_EEENS_4pairINS_15__hash_iteratorIPNS_11__hash_nodeIS2_PvEEEEbEERKT_DpOT0_
__ZNSt3__212__hash_tableIN6duckdb13PhysicalIndexENS1_25PhysicalIndexHashFunctionENS_8equal_toIS2_EENS_9allocatorIS2_EEE25__emplace_unique_key_argsIS2_JS2_EEENS_4pairINS_15__hash_iteratorIPNS_11__hash_nodeIS2_PvEEEEbEERKT_DpOT0_
__ZNSt3__212__hash_tableINS_12basic_stringIcNS_11char_traitsIcEENS_9allocatorIcEEEEN6duckdb33CaseInsensitiveStringHashFunctionENS7_29CaseInsensitiveStringEqualityENS4_IS6_EEE11__do_rehashILb1EEEvm
__ZNSt3__212__hash_tableINS_12basic_stringIcNS_11char_traitsIcEENS_9allocatorIcEEEEN6duckdb33CaseInsensitiveStringHashFunctionENS7_29CaseInsensitiveStringEqualityENS4_IS6_EEE25__emplace_unique_key_argsIS6_JRKS6_EEENS_4pairINS_15__hash_iteratorIPNS_11__hash_nodeIS6_PvEEEEbEERKT_DpOT0_
__ZNSt3__212__hash_tableINS_12basic_stringIcNS_11char_traitsIcEENS_9allocatorIcEEEEN6duckdb33CaseInsensitiveStringHashFunctionENS7_29CaseInsensitiveStringEqualityENS4_IS6_EEE4findIS6_EENS_15__hash_iteratorIPNS_11__hash_nodeIS6_PvEEEERKT_
__ZNSt3__212__hash_tableINS_12basic_stringIcNS_11char_traitsIcEENS_9allocatorIcEEEENS_4hashIS6_EENS_8equal_toIS6_EENS4_IS6_EEE11__do_rehashILb0EEEvm
__ZNSt3__212__hash_tableINS_12basic_stringIcNS_11char_traitsIcEENS_9allocatorIcEEEENS_4hashIS6_EENS_8equal_toIS6_EENS4_IS6_EEE11__do_rehashILb1EEEvm
__ZNSt3__212__hash_tableINS_12basic_stringIcNS_11char_traitsIcEENS_9allocatorIcEEEENS_4hashIS6_EENS_8equal_toIS6_EENS4_IS6_EEE14__assign_multiINS_21__hash_const_iteratorIPNS_11__hash_nodeIS6_PvEEEEEEvT_SK_
__ZNSt3__212__hash_tableINS_12basic_stringIcNS_11char_traitsIcEENS_9allocatorIcEEEENS_4hashIS6_EENS_8equal_toIS6_EENS4_IS6_EEE16__construct_nodeIJRKS6_EEENS_10unique_ptrINS_11__hash_nodeIS6_PvEENS_22__hash_node_destructorINS4_ISJ_EEEEEEDpOT_
__ZNSt3__212__hash_tableINS_12basic_stringIcNS_11char_traitsIcEENS_9allocatorIcEEEENS_4hashIS6_EENS_8equal_toIS6_EENS4_IS6_EEE25__emplace_unique_key_argsIS6_JRKS6_EEENS_4pairINS_15__hash_iteratorIPNS_11__hash_nodeIS6_PvEEEEbEERKT_DpOT0_
__ZNSt3__212__hash_tableINS_12basic_stringIcNS_11char_traitsIcEENS_9allocatorIcEEEENS_4hashIS6_EENS_8equal_toIS6_EENS4_IS6_EEE25__emplace_unique_key_argsIS6_JS6_EEENS_4pairINS_15__hash_iteratorIPNS_11__hash_nodeIS6_PvEEEEbEERKT_DpOT0_
__ZNSt3__212__hash_tableINS_12basic_stringIcNS_11char_traitsIcEENS_9allocatorIcEEEENS_4hashIS6_EENS_8equal_toIS6_EENS4_IS6_EEE4findIS6_EENS_15__hash_iteratorIPNS_11__hash_nodeIS6_PvEEEERKT_
__ZNSt3__212__hash_tableINS_17__hash_value_typeIN6duckdb8string_tEjEENS_22__unordered_map_hasherIS3_S4_NS2_10StringHashENS2_14StringEqualityELb1EEENS_21__unordered_map_equalIS3_S4_S7_S6_Lb1EEENS_9allocatorIS4_EEE11__do_rehashILb1EEEvm
__ZNSt3__212__hash_tableINS_17__hash_value_typeIN6duckdb8string_tEjEENS_22__unordered_map_hasherIS3_S4_NS2_10StringHashENS2_14StringEqualityELb1EEENS_21__unordered_map_equalIS3_S4_S7_S6_Lb1EEENS_9allocatorIS4_EEE25__emplace_unique_key_argsIS3_JNS_4pairIKS3_jEEEEENSF_INS_15__hash_iteratorIPNS_11__hash_nodeIS4_PvEEEEbEERKT_DpOT0_
__ZNSt3__212__hash_tableINS_17__hash_value_typeINS_12basic_stringIcNS_11char_traitsIcEENS_9allocatorIcEEEEN6duckdb10unique_ptrINS8_16ParsedExpressionENS_14default_deleteISA_EELb1EEEEENS_22__unordered_map_hasherIS7_SE_NS8_33CaseInsensitiveStringHashFunctionENS8_29CaseInsensitiveStringEqualityELb1EEENS_21__unordered_map_equalIS7_SE_SH_SG_Lb1EEENS5_ISE_EEE11__do_rehashILb1EEEvm
__ZNSt3__212__hash_tableINS_17__hash_value_typeINS_12basic_stringIcNS_11char_traitsIcEENS_9allocatorIcEEEEN6duckdb10unique_ptrINS8_16ParsedExpressionENS_14default_deleteISA_EELb1EEEEENS_22__unordered_map_hasherIS7_SE_NS8_33CaseInsensitiveStringHashFunctionENS8_29CaseInsensitiveStringEqualityELb1EEENS_21__unordered_map_equalIS7_SE_SH_SG_Lb1EEENS5_ISE_EEE25__emplace_unique_key_argsIS7_JNS_4pairIS7_SD_EEEEENSO_INS_15__hash_iteratorIPNS_11__hash_nodeISE_PvEEEEbEERKT_DpOT0_
__ZNSt3__212__hash_tableINS_17__hash_value_typeINS_12basic_stringIcNS_11char_traitsIcEENS_9allocatorIcEEEEN6duckdb10unique_ptrINS8_25CommonTableExpressionInfoENS_14default_deleteISA_EELb1EEEEENS_22__unordered_map_hasherIS7_SE_NS8_33CaseInsensitiveStringHashFunctionENS8_29CaseInsensitiveStringEqualityELb1EEENS_21__unordered_map_equalIS7_SE_SH_SG_Lb1EEENS5_ISE_EEE11__do_rehashILb1EEEvm
__ZNSt3__212__hash_tableINS_17__hash_value_typeINS_12basic_stringIcNS_11char_traitsIcEENS_9allocatorIcEEEEN6duckdb10unique_ptrINS8_25CommonTableExpressionInfoENS_14default_deleteISA_EELb1EEEEENS_22__unordered_map_hasherIS7_SE_NS8_33CaseInsensitiveStringHashFunctionENS8_29CaseInsensitiveStringEqualityELb1EEENS_21__unordered_map_equalIS7_SE_SH_SG_Lb1EEENS5_ISE_EEE25__emplace_unique_key_argsIS7_JRKNS_21piecewise_construct_tENS_5tupleIJRKS7_EEENSR_IJEEEEEENS_4pairINS_15__hash_iteratorIPNS_11__hash_nodeISE_PvEEEEbEERKT_DpOT0_
__ZNSt3__212__hash_tableINS_17__hash_value_typeINS_12basic_stringIcNS_11char_traitsIcEENS_9allocatorIcEEEEN6duckdb10unique_ptrINS8_25CommonTableExpressionInfoENS_14default_deleteISA_EELb1EEEEENS_22__unordered_map_hasherIS7_SE_NS8_33CaseInsensitiveStringHashFunctionENS8_29CaseInsensitiveStringEqualityELb1EEENS_21__unordered_map_equalIS7_SE_SH_SG_Lb1EEENS5_ISE_EEE4findIS7_EENS_15__hash_iteratorIPNS_11__hash_nodeISE_PvEEEERKT_
__ZNSt3__212__hash_tableINS_17__hash_value_typeINS_12basic_stringIcNS_11char_traitsIcEENS_9allocatorIcEEEEN6duckdb11LogicalTypeEEENS_22__unordered_map_hasherIS7_SA_NS8_33CaseInsensitiveStringHashFunctionENS8_29CaseInsensitiveStringEqualityELb1EEENS_21__unordered_map_equalIS7_SA_SD_SC_Lb1EEENS5_ISA_EEE11__do_rehashILb0EEEvm
__ZNSt3__212__hash_tableINS_17__hash_value_typeINS_12basic_stringIcNS_11char_traitsIcEENS_9allocatorIcEEEEN6duckdb11LogicalTypeEEENS_22__unordered_map_hasherIS7_SA_NS8_33CaseInsensitiveStringHashFunctionENS8_29CaseInsensitiveStringEqualityELb1EEENS_21__unordered_map_equalIS7_SA_SD_SC_Lb1EEENS5_ISA_EEE11__do_rehashILb1EEEvm
__ZNSt3__212__hash_tableINS_17__hash_value_typeINS_12basic_stringIcNS_11char_traitsIcEENS_9allocatorIcEEEEN6duckdb11LogicalTypeEEENS_22__unordered_map_hasherIS7_SA_NS8_33CaseInsensitiveStringHashFunctionENS8_29CaseInsensitiveStringEqualityELb1EEENS_21__unordered_map_equalIS7_SA_SD_SC_Lb1EEENS5_ISA_EEE14__assign_multiINS_21__hash_const_iteratorIPNS_11__hash_nodeISA_PvEEEEEEvT_SQ_
__ZNSt3__212__hash_tableINS_17__hash_value_typeINS_12basic_stringIcNS_11char_traitsIcEENS_9allocatorIcEEEEN6duckdb11LogicalTypeEEENS_22__unordered_map_hasherIS7_SA_NS8_33CaseInsensitiveStringHashFunctionENS8_29CaseInsensitiveStringEqualityELb1EEENS_21__unordered_map_equalIS7_SA_SD_SC_Lb1EEENS5_ISA_EEE16__construct_nodeIJRA4_KcRKS9_EEENS_10unique_ptrINS_11__hash_nodeISA_PvEENS_22__hash_node_destructorINS5_ISS_EEEEEEDpOT_
__ZNSt3__212__hash_tableINS_17__hash_value_typeINS_12basic_stringIcNS_11char_traitsIcEENS_9allocatorIcEEEEN6duckdb11LogicalTypeEEENS_22__unordered_map_hasherIS7_SA_NS8_33CaseInsensitiveStringHashFunctionENS8_29CaseInsensitiveStringEqualityELb1EEENS_21__unordered_map_equalIS7_SA_SD_SC_Lb1EEENS5_ISA_EEE16__construct_nodeIJRA6_KcRKS9_EEENS_10unique_ptrINS_11__hash_nodeISA_PvEENS_22__hash_node_destructorINS5_ISS_EEEEEEDpOT_
__ZNSt3__212__hash_tableINS_17__hash_value_typeINS_12basic_stringIcNS_11char_traitsIcEENS_9allocatorIcEEEEN6duckdb11LogicalTypeEEENS_22__unordered_map_hasherIS7_SA_NS8_33CaseInsensitiveStringHashFunctionENS8_29CaseInsensitiveStringEqualityELb1EEENS_21__unordered_map_equalIS7_SA_SD_SC_Lb1EEENS5_ISA_EEE16__construct_nodeIJRA8_KcRKS9_EEENS_10unique_ptrINS_11__hash_nodeISA_PvEENS_22__hash_node_destructorINS5_ISS_EEEEEEDpOT_
__ZNSt3__212__hash_tableINS_17__hash_value_typeINS_12basic_stringIcNS_11char_traitsIcEENS_9allocatorIcEEEEN6duckdb11LogicalTypeEEENS_22__unordered_map_hasherIS7_SA_NS8_33CaseInsensitiveStringHashFunctionENS8_29CaseInsensitiveStringEqualityELb1EEENS_21__unordered_map_equalIS7_SA_SD_SC_Lb1EEENS5_ISA_EEE16__construct_nodeIJRKNS_4pairIKS7_S9_EEEEENS_10unique_ptrINS_11__hash_nodeISA_PvEENS_22__hash_node_destructorINS5_ISS_EEEEEEDpOT_
__ZNSt3__212__hash_tableINS_17__hash_value_typeINS_12basic_stringIcNS_11char_traitsIcEENS_9allocatorIcEEEEN6duckdb11LogicalTypeEEENS_22__unordered_map_hasherIS7_SA_NS8_33CaseInsensitiveStringHashFunctionENS8_29CaseInsensitiveStringEqualityELb1EEENS_21__unordered_map_equalIS7_SA_SD_SC_Lb1EEENS5_ISA_EEE21__emplace_unique_implIJRA4_KcRKS9_EEENS_4pairINS_15__hash_iteratorIPNS_11__hash_nodeISA_PvEEEEbEEDpOT_
__ZNSt3__212__hash_tableINS_17__hash_value_typeINS_12basic_stringIcNS_11char_traitsIcEENS_9allocatorIcEEEEN6duckdb11LogicalTypeEEENS_22__unordered_map_hasherIS7_SA_NS8_33CaseInsensitiveStringHashFunctionENS8_29CaseInsensitiveStringEqualityELb1EEENS_21__unordered_map_equalIS7_SA_SD_SC_Lb1EEENS5_ISA_EEE21__emplace_unique_implIJRA6_KcRKS9_EEENS_4pairINS_15__hash_iteratorIPNS_11__hash_nodeISA_PvEEEEbEEDpOT_
__ZNSt3__212__hash_tableINS_17__hash_value_typeINS_12basic_stringIcNS_11char_traitsIcEENS_9allocatorIcEEEEN6duckdb11LogicalTypeEEENS_22__unordered_map_hasherIS7_SA_NS8_33CaseInsensitiveStringHashFunctionENS8_29CaseInsensitiveStringEqualityELb1EEENS_21__unordered_map_equalIS7_SA_SD_SC_Lb1EEENS5_ISA_EEE21__emplace_unique_implIJRA8_KcRKS9_EEENS_4pairINS_15__hash_iteratorIPNS_11__hash_nodeISA_PvEEEEbEEDpOT_
__ZNSt3__212__hash_tableINS_17__hash_value_typeINS_12basic_stringIcNS_11char_traitsIcEENS_9allocatorIcEEEEN6duckdb11LogicalTypeEEENS_22__unordered_map_hasherIS7_SA_NS8_33CaseInsensitiveStringHashFunctionENS8_29CaseInsensitiveStringEqualityELb1EEENS_21__unordered_map_equalIS7_SA_SD_SC_Lb1EEENS5_ISA_EEE25__emplace_unique_key_argsIS7_JRKNS_21piecewise_construct_tENS_5tupleIJOS7_EEENSN_IJEEEEEENS_4pairINS_15__hash_iteratorIPNS_11__hash_nodeISA_PvEEEEbEERKT_DpOT0_
__ZNSt3__212__hash_tableINS_17__hash_value_typeINS_12basic_stringIcNS_11char_traitsIcEENS_9allocatorIcEEEEN6duckdb11LogicalTypeEEENS_22__unordered_map_hasherIS7_SA_NS8_33CaseInsensitiveStringHashFunctionENS8_29CaseInsensitiveStringEqualityELb1EEENS_21__unordered_map_equalIS7_SA_SD_SC_Lb1EEENS5_ISA_EEE25__emplace_unique_key_argsIS7_JRKNS_4pairIKS7_S9_EEEEENSK_INS_15__hash_iteratorIPNS_11__hash_nodeISA_PvEEEEbEERKT_DpOT0_
__ZNSt3__212__hash_tableINS_17__hash_value_typeINS_12basic_stringIcNS_11char_traitsIcEENS_9allocatorIcEEEEN6duckdb11LogicalTypeEEENS_22__unordered_map_hasherIS7_SA_NS8_33CaseInsensitiveStringHashFunctionENS8_29CaseInsensitiveStringEqualityELb1EEENS_21__unordered_map_equalIS7_SA_SD_SC_Lb1EEENS5_ISA_EEE25__emplace_unique_key_argsIS7_JRKNS_4pairIS7_S9_EEEEENSK_INS_15__hash_iteratorIPNS_11__hash_nodeISA_PvEEEEbEERKT_DpOT0_
__ZNSt3__212__hash_tableINS_17__hash_value_typeINS_12basic_stringIcNS_11char_traitsIcEENS_9allocatorIcEEEEN6duckdb11LogicalTypeEEENS_22__unordered_map_hasherIS7_SA_NS8_33CaseInsensitiveStringHashFunctionENS8_29CaseInsensitiveStringEqualityELb1EEENS_21__unordered_map_equalIS7_SA_SD_SC_Lb1EEENS5_ISA_EEE25__emplace_unique_key_argsIS7_JRKS7_RKS9_EEENS_4pairINS_15__hash_iteratorIPNS_11__hash_nodeISA_PvEEEEbEERKT_DpOT0_
__ZNSt3__212__hash_tableINS_17__hash_value_typeINS_12basic_stringIcNS_11char_traitsIcEENS_9allocatorIcEEEEN6duckdb5ValueEEENS_22__unordered_map_hasherIS7_SA_NS8_33CaseInsensitiveStringHashFunctionENS8_29CaseInsensitiveStringEqualityELb1EEENS_21__unordered_map_equalIS7_SA_SD_SC_Lb1EEENS5_ISA_EEE11__do_rehashILb0EEEvm
__ZNSt3__212__hash_tableINS_17__hash_value_typeINS_12basic_stringIcNS_11char_traitsIcEENS_9allocatorIcEEEEN6duckdb5ValueEEENS_22__unordered_map_hasherIS7_SA_NS8_33CaseInsensitiveStringHashFunctionENS8_29CaseInsensitiveStringEqualityELb1EEENS_21__unordered_map_equalIS7_SA_SD_SC_Lb1EEENS5_ISA_EEE11__do_rehashILb1EEEvm
__ZNSt3__212__hash_tableINS_17__hash_value_typeINS_12basic_stringIcNS_11char_traitsIcEENS_9allocatorIcEEEEN6duckdb5ValueEEENS_22__unordered_map_hasherIS7_SA_NS8_33CaseInsensitiveStringHashFunctionENS8_29CaseInsensitiveStringEqualityELb1EEENS_21__unordered_map_equalIS7_SA_SD_SC_Lb1EEENS5_ISA_EEE14__assign_multiINS_21__hash_const_iteratorIPNS_11__hash_nodeISA_PvEEEEEEvT_SQ_
__ZNSt3__212__hash_tableINS_17__hash_value_typeINS_12basic_stringIcNS_11char_traitsIcEENS_9allocatorIcEEEEN6duckdb5ValueEEENS_22__unordered_map_hasherIS7_SA_NS8_33CaseInsensitiveStringHashFunctionENS8_29CaseInsensitiveStringEqualityELb1EEENS_21__unordered_map_equalIS7_SA_SD_SC_Lb1EEENS5_ISA_EEE16__construct_nodeIJRKNS_4pairIKS7_S9_EEEEENS_10unique_ptrINS_11__hash_nodeISA_PvEENS_22__hash_node_destructorINS5_ISS_EEEEEEDpOT_
__ZNSt3__212__hash_tableINS_17__hash_value_typeINS_12basic_stringIcNS_11char_traitsIcEENS_9allocatorIcEEEEN6duckdb5ValueEEENS_22__unordered_map_hasherIS7_SA_NS8_33CaseInsensitiveStringHashFunctionENS8_29CaseInsensitiveStringEqualityELb1EEENS_21__unordered_map_equalIS7_SA_SD_SC_Lb1EEENS5_ISA_EEE21__construct_node_hashIRKNS_21piecewise_construct_tEJNS_5tupleIJOS7_EEENSN_IJEEEEEENS_10unique_ptrINS_11__hash_nodeISA_PvEENS_22__hash_node_destructorINS5_ISU_EEEEEEmOT_DpOT0_
__ZNSt3__212__hash_tableINS_17__hash_value_typeINS_12basic_stringIcNS_11char_traitsIcEENS_9allocatorIcEEEEN6duckdb5ValueEEENS_22__unordered_map_hasherIS7_SA_NS8_33CaseInsensitiveStringHashFunctionENS8_29CaseInsensitiveStringEqualityELb1EEENS_21__unordered_map_equalIS7_SA_SD_SC_Lb1EEENS5_ISA_EEE25__emplace_unique_key_argsIS7_JRKNS_21piecewise_construct_tENS_5tupleIJOS7_EEENSN_IJEEEEEENS_4pairINS_15__hash_iteratorIPNS_11__hash_nodeISA_PvEEEEbEERKT_DpOT0_
__ZNSt3__212__hash_tableINS_17__hash_value_typeINS_12basic_stringIcNS_11char_traitsIcEENS_9allocatorIcEEEEN6duckdb5ValueEEENS_22__unordered_map_hasherIS7_SA_NS8_33CaseInsensitiveStringHashFunctionENS8_29CaseInsensitiveStringEqualityELb1EEENS_21__unordered_map_equalIS7_SA_SD_SC_Lb1EEENS5_ISA_EEE25__emplace_unique_key_argsIS7_JRKNS_21piecewise_construct_tENS_5tupleIJRKS7_EEENSN_IJEEEEEENS_4pairINS_15__hash_iteratorIPNS_11__hash_nodeISA_PvEEEEbEERKT_DpOT0_
__ZNSt3__212__hash_tableINS_17__hash_value_typeINS_12basic_stringIcNS_11char_traitsIcEENS_9allocatorIcEEEEN6duckdb5ValueEEENS_22__unordered_map_hasherIS7_SA_NS8_33CaseInsensitiveStringHashFunctionENS8_29CaseInsensitiveStringEqualityELb1EEENS_21__unordered_map_equalIS7_SA_SD_SC_Lb1EEENS5_ISA_EEE25__emplace_unique_key_argsIS7_JRKNS_4pairIKS7_S9_EEEEENSK_INS_15__hash_iteratorIPNS_11__hash_nodeISA_PvEEEEbEERKT_DpOT0_
__ZNSt3__212__hash_tableINS_17__hash_value_typeINS_12basic_stringIcNS_11char_traitsIcEENS_9allocatorIcEEEEN6duckdb5ValueEEENS_22__unordered_map_hasherIS7_SA_NS8_33CaseInsensitiveStringHashFunctionENS8_29CaseInsensitiveStringEqualityELb1EEENS_21__unordered_map_equalIS7_SA_SD_SC_Lb1EEENS5_ISA_EEE4findIS7_EENS_15__hash_iteratorIPNS_11__hash_nodeISA_PvEEEERKT_
__ZNSt3__212__hash_tableINS_17__hash_value_typeINS_12basic_stringIcNS_11char_traitsIcEENS_9allocatorIcEEEEN6duckdb5ValueEEENS_22__unordered_map_hasherIS7_SA_NS_4hashIS7_EENS_8equal_toIS7_EELb1EEENS_21__unordered_map_equalIS7_SA_SF_SD_Lb1EEENS5_ISA_EEE11__do_rehashILb1EEEvm
__ZNSt3__212__hash_tableINS_17__hash_value_typeINS_12basic_stringIcNS_11char_traitsIcEENS_9allocatorIcEEEEN6duckdb5ValueEEENS_22__unordered_map_hasherIS7_SA_NS_4hashIS7_EENS_8equal_toIS7_EELb1EEENS_21__unordered_map_equalIS7_SA_SF_SD_Lb1EEENS5_ISA_EEE25__emplace_unique_key_argsIS7_JRKNS_21piecewise_construct_tENS_5tupleIJRKS7_EEENSP_IJEEEEEENS_4pairINS_15__hash_iteratorIPNS_11__hash_nodeISA_PvEEEEbEERKT_DpOT0_
__ZNSt3__212__hash_tableINS_17__hash_value_typeINS_12basic_stringIcNS_11char_traitsIcEENS_9allocatorIcEEEEN6duckdb5ValueEEENS_22__unordered_map_hasherIS7_SA_NS_4hashIS7_EENS_8equal_toIS7_EELb1EEENS_21__unordered_map_equalIS7_SA_SF_SD_Lb1EEENS5_ISA_EEE4findIS7_EENS_15__hash_iteratorIPNS_11__hash_nodeISA_PvEEEERKT_
__ZNSt3__212__hash_tableINS_17__hash_value_typeINS_12basic_stringIcNS_11char_traitsIcEENS_9allocatorIcEEEEN6duckdb6vectorINS8_5ValueELb1EEEEENS_22__unordered_map_hasherIS7_SC_NS8_33CaseInsensitiveStringHashFunctionENS8_29CaseInsensitiveStringEqualityELb1EEENS_21__unordered_map_equalIS7_SC_SF_SE_Lb1EEENS5_ISC_EEE11__do_rehashILb1EEEvm
__ZNSt3__212__hash_tableINS_17__hash_value_typeINS_12basic_stringIcNS_11char_traitsIcEENS_9allocatorIcEEEEN6duckdb6vectorINS8_5ValueELb1EEEEENS_22__unordered_map_hasherIS7_SC_NS8_33CaseInsensitiveStringHashFunctionENS8_29CaseInsensitiveStringEqualityELb1EEENS_21__unordered_map_equalIS7_SC_SF_SE_Lb1EEENS5_ISC_EEE21__construct_node_hashIRKNS_4pairIKS7_SB_EEJEEENS_10unique_ptrINS_11__hash_nodeISC_PvEENS_22__hash_node_destructorINS5_ISU_EEEEEEmOT_DpOT0_
__ZNSt3__212__hash_tableINS_17__hash_value_typeINS_12basic_stringIcNS_11char_traitsIcEENS_9allocatorIcEEEEN6duckdb6vectorINS8_5ValueELb1EEEEENS_22__unordered_map_hasherIS7_SC_NS8_33CaseInsensitiveStringHashFunctionENS8_29CaseInsensitiveStringEqualityELb1EEENS_21__unordered_map_equalIS7_SC_SF_SE_Lb1EEENS5_ISC_EEE25__emplace_unique_key_argsIS7_JRKNS_21piecewise_construct_tENS_5tupleIJOS7_EEENSP_IJEEEEEENS_4pairINS_15__hash_iteratorIPNS_11__hash_nodeISC_PvEEEEbEERKT_DpOT0_
__ZNSt3__212__hash_tableINS_17__hash_value_typeINS_12basic_stringIcNS_11char_traitsIcEENS_9allocatorIcEEEEN6duckdb6vectorINS8_5ValueELb1EEEEENS_22__unordered_map_hasherIS7_SC_NS8_33CaseInsensitiveStringHashFunctionENS8_29CaseInsensitiveStringEqualityELb1EEENS_21__unordered_map_equalIS7_SC_SF_SE_Lb1EEENS5_ISC_EEE25__emplace_unique_key_argsIS7_JRKNS_4pairIKS7_SB_EEEEENSM_INS_15__hash_iteratorIPNS_11__hash_nodeISC_PvEEEEbEERKT_DpOT0_
__ZNSt3__212__hash_tableINS_17__hash_value_typeINS_12basic_stringIcNS_11char_traitsIcEENS_9allocatorIcEEEEN6duckdb7FieldIDEEENS_22__unordered_map_hasherIS7_SA_NS8_33CaseInsensitiveStringHashFunctionENS8_29CaseInsensitiveStringEqualityELb1EEENS_21__unordered_map_equalIS7_SA_SD_SC_Lb1EEENS5_ISA_EEE11__do_rehashILb1EEEvm
__ZNSt3__212__hash_tableINS_17__hash_value_typeINS_12basic_stringIcNS_11char_traitsIcEENS_9allocatorIcEEEEN6duckdb7FieldIDEEENS_22__unordered_map_hasherIS7_SA_NS8_33CaseInsensitiveStringHashFunctionENS8_29CaseInsensitiveStringEqualityELb1EEENS_21__unordered_map_equalIS7_SA_SD_SC_Lb1EEENS5_ISA_EEE25__emplace_unique_key_argsIS7_JNS_4pairIS7_S9_EEEEENSK_INS_15__hash_iteratorIPNS_11__hash_nodeISA_PvEEEEbEERKT_DpOT0_
__ZNSt3__212__hash_tableINS_17__hash_value_typeINS_12basic_stringIcNS_11char_traitsIcEENS_9allocatorIcEEEEN6duckdb7FieldIDEEENS_22__unordered_map_hasherIS7_SA_NS8_33CaseInsensitiveStringHashFunctionENS8_29CaseInsensitiveStringEqualityELb1EEENS_21__unordered_map_equalIS7_SA_SD_SC_Lb1EEENS5_ISA_EEE25__emplace_unique_key_argsIS7_JRKS7_S9_EEENS_4pairINS_15__hash_iteratorIPNS_11__hash_nodeISA_PvEEEEbEERKT_DpOT0_
__ZNSt3__212__hash_tableINS_17__hash_value_typeINS_12basic_stringIcNS_11char_traitsIcEENS_9allocatorIcEEEEN6duckdb7FieldIDEEENS_22__unordered_map_hasherIS7_SA_NS8_33CaseInsensitiveStringHashFunctionENS8_29CaseInsensitiveStringEqualityELb1EEENS_21__unordered_map_equalIS7_SA_SD_SC_Lb1EEENS5_ISA_EEE4findIS7_EENS_15__hash_iteratorIPNS_11__hash_nodeISA_PvEEEERKT_
__ZNSt3__212__hash_tableINS_17__hash_value_typeINS_12basic_stringIcNS_11char_traitsIcEENS_9allocatorIcEEEENS_10shared_ptrIN6duckdb16ObjectCacheEntryEEEEENS_22__unordered_map_hasherIS7_SC_NS_4hashIS7_EENS_8equal_toIS7_EELb1EEENS_21__unordered_map_equalIS7_SC_SH_SF_Lb1EEENS5_ISC_EEE11__do_rehashILb1EEEvm
__ZNSt3__212__hash_tableINS_17__hash_value_typeINS_12basic_stringIcNS_11char_traitsIcEENS_9allocatorIcEEEENS_10shared_ptrIN6duckdb16ObjectCacheEntryEEEEENS_22__unordered_map_hasherIS7_SC_NS_4hashIS7_EENS_8equal_toIS7_EELb1EEENS_21__unordered_map_equalIS7_SC_SH_SF_Lb1EEENS5_ISC_EEE25__emplace_unique_key_argsIS7_JRKNS_21piecewise_construct_tENS_5tupleIJRKS7_EEENSR_IJEEEEEENS_4pairINS_15__hash_iteratorIPNS_11__hash_nodeISC_PvEEEEbEERKT_DpOT0_
__ZNSt3__212__hash_tableINS_17__hash_value_typeINS_12basic_stringIcNS_11char_traitsIcEENS_9allocatorIcEEEENS_10shared_ptrIN6duckdb16ObjectCacheEntryEEEEENS_22__unordered_map_hasherIS7_SC_NS_4hashIS7_EENS_8equal_toIS7_EELb1EEENS_21__unordered_map_equalIS7_SC_SH_SF_Lb1EEENS5_ISC_EEE4findIS7_EENS_15__hash_iteratorIPNS_11__hash_nodeISC_PvEEEERKT_
__ZNSt3__212__hash_tableINS_17__hash_value_typeINS_12basic_stringIcNS_11char_traitsIcEENS_9allocatorIcEEEES7_EENS_22__unordered_map_hasherIS7_S8_N6duckdb33CaseInsensitiveStringHashFunctionENSA_29CaseInsensitiveStringEqualityELb1EEENS_21__unordered_map_equalIS7_S8_SC_SB_Lb1EEENS5_IS8_EEE11__do_rehashILb1EEEvm
__ZNSt3__212__hash_tableINS_17__hash_value_typeINS_12basic_stringIcNS_11char_traitsIcEENS_9allocatorIcEEEES7_EENS_22__unordered_map_hasherIS7_S8_NS_4hashIS7_EENS_8equal_toIS7_EELb1EEENS_21__unordered_map_equalIS7_S8_SD_SB_Lb1EEENS5_IS8_EEE11__do_rehashILb1EEEvm
__ZNSt3__212__hash_tableINS_17__hash_value_typeINS_12basic_stringIcNS_11char_traitsIcEENS_9allocatorIcEEEEiEENS_22__unordered_map_hasherIS7_S8_NS_4hashIS7_EENS_8equal_toIS7_EELb1EEENS_21__unordered_map_equalIS7_S8_SD_SB_Lb1EEENS5_IS8_EEE4findIS7_EENS_15__hash_iteratorIPNS_11__hash_nodeIS8_PvEEEERKT_
__ZNSt3__212__hash_tableINS_17__hash_value_typeINS_12basic_stringIcNS_11char_traitsIcEENS_9allocatorIcEEEEyEENS_22__unordered_map_hasherIS7_S8_N6duckdb33CaseInsensitiveStringHashFunctionENSA_29CaseInsensitiveStringEqualityELb1EEENS_21__unordered_map_equalIS7_S8_SC_SB_Lb1EEENS5_IS8_EEE11__do_rehashILb1EEEvm
__ZNSt3__212__hash_tableINS_17__hash_value_typeINS_12basic_stringIcNS_11char_traitsIcEENS_9allocatorIcEEEEyEENS_22__unordered_map_hasherIS7_S8_N6duckdb33CaseInsensitiveStringHashFunctionENSA_29CaseInsensitiveStringEqualityELb1EEENS_21__unordered_map_equalIS7_S8_SC_SB_Lb1EEENS5_IS8_EEE25__emplace_unique_key_argsIS7_JRKNS_21piecewise_construct_tENS_5tupleIJRKS7_EEENSM_IJEEEEEENS_4pairINS_15__hash_iteratorIPNS_11__hash_nodeIS8_PvEEEEbEERKT_DpOT0_
__ZNSt3__212__hash_tableINS_17__hash_value_typeINS_12basic_stringIcNS_11char_traitsIcEENS_9allocatorIcEEEEyEENS_22__unordered_map_hasherIS7_S8_N6duckdb33CaseInsensitiveStringHashFunctionENSA_29CaseInsensitiveStringEqualityELb1EEENS_21__unordered_map_equalIS7_S8_SC_SB_Lb1EEENS5_IS8_EEE4findIS7_EENS_15__hash_iteratorIPNS_11__hash_nodeIS8_PvEEEERKT_
__ZNSt3__212__hash_tableINS_17__hash_value_typeINS_12basic_stringIcNS_11char_traitsIcEENS_9allocatorIcEEEEyEENS_22__unordered_map_hasherIS7_S8_NS_4hashIS7_EENS_8equal_toIS7_EELb1EEENS_21__unordered_map_equalIS7_S8_SD_SB_Lb1EEENS5_IS8_EEE11__do_rehashILb1EEEvm
__ZNSt3__212__hash_tableINS_17__hash_value_typeINS_12basic_stringIcNS_11char_traitsIcEENS_9allocatorIcEEEEyEENS_22__unordered_map_hasherIS7_S8_NS_4hashIS7_EENS_8equal_toIS7_EELb1EEENS_21__unordered_map_equalIS7_S8_SD_SB_Lb1EEENS5_IS8_EEE25__emplace_unique_key_argsIS7_JRKNS_21piecewise_construct_tENS_5tupleIJRKS7_EEENSN_IJEEEEEENS_4pairINS_15__hash_iteratorIPNS_11__hash_nodeIS8_PvEEEEbEERKT_DpOT0_
__ZNSt3__212__hash_tableINS_17__hash_value_typeINS_12basic_stringIcNS_11char_traitsIcEENS_9allocatorIcEEEEyEENS_22__unordered_map_hasherIS7_S8_NS_4hashIS7_EENS_8equal_toIS7_EELb1EEENS_21__unordered_map_equalIS7_S8_SD_SB_Lb1EEENS5_IS8_EEE4findIS7_EENS_15__hash_iteratorIPNS_11__hash_nodeIS8_PvEEEERKT_
__ZNSt3__212__hash_tableINS_17__hash_value_typeINS_17reference_wrapperIKN6duckdb16PhysicalOperatorEEENS2_INS3_8PipelineEEEEENS_22__unordered_map_hasherIS6_S9_NS3_21ReferenceHashFunctionIS5_EENS3_17ReferenceEqualityIS5_EELb1EEENS_21__unordered_map_equalIS6_S9_SE_SC_Lb1EEENS_9allocatorIS9_EEE11__do_rehashILb1EEEvm
__ZNSt3__212__hash_tableINS_17__hash_value_typeIPN6duckdb13ClientContextENS_8weak_ptrIS3_EEEENS_22__unordered_map_hasherIS4_S7_NS_4hashIS4_EENS_8equal_toIS4_EELb1EEENS_21__unordered_map_equalIS4_S7_SC_SA_Lb1EEENS_9allocatorIS7_EEE4findIS4_EENS_15__hash_iteratorIPNS_11__hash_nodeIS7_PvEEEERKT_
__ZNSt3__212__hash_tableINS_17__hash_value_typeIyN6duckdb10unique_ptrINS2_11TableFilterENS_14default_deleteIS4_EELb1EEEEENS_22__unordered_map_hasherIyS8_NS_4hashIyEENS_8equal_toIyEELb1EEENS_21__unordered_map_equalIyS8_SD_SB_Lb1EEENS_9allocatorIS8_EEE4findIyEENS_15__hash_iteratorIPNS_11__hash_nodeIS8_PvEEEERKT_
__ZNSt3__212__hash_tableINS_17__hash_value_typeIyNS_12basic_stringIcNS_11char_traitsIcEENS_9allocatorIcEEEEEENS_22__unordered_map_hasherIyS8_NS_4hashIyEENS_8equal_toIyEELb1EEENS_21__unordered_map_equalIyS8_SD_SB_Lb1EEENS5_IS8_EEE11__do_rehashILb1EEEvm
__ZNSt3__212__hash_tableINS_17__hash_value_typeIyNS_12basic_stringIcNS_11char_traitsIcEENS_9allocatorIcEEEEEENS_22__unordered_map_hasherIyS8_NS_4hashIyEENS_8equal_toIyEELb1EEENS_21__unordered_map_equalIyS8_SD_SB_Lb1EEENS5_IS8_EEE25__emplace_unique_key_argsIyJRKNS_21piecewise_construct_tENS_5tupleIJRKyEEENSN_IJEEEEEENS_4pairINS_15__hash_iteratorIPNS_11__hash_nodeIS8_PvEEEEbEERKT_DpOT0_
__ZNSt3__212__hash_tableINS_17__hash_value_typeIyNS_12basic_stringIcNS_11char_traitsIcEENS_9allocatorIcEEEEEENS_22__unordered_map_hasherIyS8_NS_4hashIyEENS_8equal_toIyEELb1EEENS_21__unordered_map_equalIyS8_SD_SB_Lb1EEENS5_IS8_EEE4findIyEENS_15__hash_iteratorIPNS_11__hash_nodeIS8_PvEEEERKT_
__ZNSt3__212__hash_tableIjNS_4hashIjEENS_8equal_toIjEENS_9allocatorIjEEE11__do_rehashILb1EEEvm
__ZNSt3__212__hash_tableIjNS_4hashIjEENS_8equal_toIjEENS_9allocatorIjEEE25__emplace_unique_key_argsIjJRKjEEENS_4pairINS_15__hash_iteratorIPNS_11__hash_nodeIjPvEEEEbEERKT_DpOT0_
__ZNSt3__212__hash_tableIyNS_4hashIyEENS_8equal_toIyEENS_9allocatorIyEEE11__do_rehashILb1EEEvm
__ZNSt3__212__hash_tableIyNS_4hashIyEENS_8equal_toIyEENS_9allocatorIyEEE25__emplace_unique_key_argsIyJRKyEEENS_4pairINS_15__hash_iteratorIPNS_11__hash_nodeIyPvEEEEbEERKT_DpOT0_
__ZNSt3__212__hash_tableIyNS_4hashIyEENS_8equal_toIyEENS_9allocatorIyEEE25__emplace_unique_key_argsIyJyEEENS_4pairINS_15__hash_iteratorIPNS_11__hash_nodeIyPvEEEEbEERKT_DpOT0_
__ZNSt3__212__match_charIcED0Ev
__ZNSt3__212__next_primeEm
__ZNSt3__212bad_weak_ptrD1Ev
__ZNSt3__212basic_stringIcNS_11char_traitsIcEENS_9allocatorIcEEE17__assign_externalEPKc
__ZNSt3__212basic_stringIcNS_11char_traitsIcEENS_9allocatorIcEEE17__assign_externalEPKcm
__ZNSt3__212basic_stringIcNS_11char_traitsIcEENS_9allocatorIcEEE17__assign_no_aliasILb0EEERS5_PKcm
__ZNSt3__212basic_stringIcNS_11char_traitsIcEENS_9allocatorIcEEE17__assign_no_aliasILb1EEERS5_PKcm
__ZNSt3__212basic_stringIcNS_11char_traitsIcEENS_9allocatorIcEEE25__init_copy_ctor_externalEPKcm
__ZNSt3__212basic_stringIcNS_11char_traitsIcEENS_9allocatorIcEEE26__erase_external_with_moveEmm
__ZNSt3__212basic_stringIcNS_11char_traitsIcEENS_9allocatorIcEEE2atEm
__ZNSt3__212basic_stringIcNS_11char_traitsIcEENS_9allocatorIcEEE6appendB8ue170004INS_11__wrap_iterIPKcEETnNS_9enable_ifIXsr31__has_forward_iterator_categoryIT_EE5valueEiE4typeELi0EEERS5_SC_SC_
__ZNSt3__212basic_stringIcNS_11char_traitsIcEENS_9allocatorIcEEE6appendB8ue170004IPKcTnNS_9enable_ifIXsr31__has_forward_iterator_categoryIT_EE5valueEiE4typeELi0EEERS5_SA_SA_
__ZNSt3__212basic_stringIcNS_11char_traitsIcEENS_9allocatorIcEEE6appendEPKc
__ZNSt3__212basic_stringIcNS_11char_traitsIcEENS_9allocatorIcEEE6appendEPKcm
__ZNSt3__212basic_stringIcNS_11char_traitsIcEENS_9allocatorIcEEE6appendERKS5_mm
__ZNSt3__212basic_stringIcNS_11char_traitsIcEENS_9allocatorIcEEE6appendEmc
__ZNSt3__212basic_stringIcNS_11char_traitsIcEENS_9allocatorIcEEE6insertENS_11__wrap_iterIPKcEEc
__ZNSt3__212basic_stringIcNS_11char_traitsIcEENS_9allocatorIcEEE6insertEmPKc
__ZNSt3__212basic_stringIcNS_11char_traitsIcEENS_9allocatorIcEEE6insertEmPKcm
__ZNSt3__212basic_stringIcNS_11char_traitsIcEENS_9allocatorIcEEE6insertEmmc
__ZNSt3__212basic_stringIcNS_11char_traitsIcEENS_9allocatorIcEEE6resizeEmc
__ZNSt3__212basic_stringIcNS_11char_traitsIcEENS_9allocatorIcEEE7replaceEmmPKc
__ZNSt3__212basic_stringIcNS_11char_traitsIcEENS_9allocatorIcEEE7replaceEmmPKcm
__ZNSt3__212basic_stringIcNS_11char_traitsIcEENS_9allocatorIcEEE7reserveEm
__ZNSt3__212basic_stringIcNS_11char_traitsIcEENS_9allocatorIcEEE9push_backEc
__ZNSt3__212basic_stringIcNS_11char_traitsIcEENS_9allocatorIcEEEC2B8ue170004ILi0EEEPKc
__ZNSt3__212basic_stringIcNS_11char_traitsIcEENS_9allocatorIcEEED2Ev
__ZNSt3__212basic_stringIcNS_11char_traitsIcEENS_9allocatorIcEEEaSEc
__ZNSt3__212basic_stringIwNS_11char_traitsIwEENS_9allocatorIwEEE17__assign_externalEPKw
__ZNSt3__212basic_stringIwNS_11char_traitsIwEENS_9allocatorIwEEE17__assign_externalEPKwm
__ZNSt3__212basic_stringIwNS_11char_traitsIwEENS_9allocatorIwEEE17__assign_no_aliasILb0EEERS5_PKwm
__ZNSt3__212basic_stringIwNS_11char_traitsIwEENS_9allocatorIwEEE17__assign_no_aliasILb1EEERS5_PKwm
__ZNSt3__212basic_stringIwNS_11char_traitsIwEENS_9allocatorIwEEE25__init_copy_ctor_externalEPKwm
__ZNSt3__212basic_stringIwNS_11char_traitsIwEENS_9allocatorIwEEE26__erase_external_with_moveEmm
__ZNSt3__212basic_stringIwNS_11char_traitsIwEENS_9allocatorIwEEE2atEm
__ZNSt3__212basic_stringIwNS_11char_traitsIwEENS_9allocatorIwEEE5eraseEmm
__ZNSt3__212basic_stringIwNS_11char_traitsIwEENS_9allocatorIwEEE6appendEPKwm
__ZNSt3__212basic_stringIwNS_11char_traitsIwEENS_9allocatorIwEEE6insertEmPKw
__ZNSt3__212basic_stringIwNS_11char_traitsIwEENS_9allocatorIwEEE6insertEmPKwm
__ZNSt3__212basic_stringIwNS_11char_traitsIwEENS_9allocatorIwEEE6insertEmmw
__ZNSt3__212basic_stringIwNS_11char_traitsIwEENS_9allocatorIwEEE7replaceEmmPKwm
__ZNSt3__212basic_stringIwNS_11char_traitsIwEENS_9allocatorIwEEE9push_backEw
__ZNSt3__212basic_stringIwNS_11char_traitsIwEENS_9allocatorIwEEEC2B8ue170004ILi0EEEPKw
__ZNSt3__212basic_stringIwNS_11char_traitsIwEENS_9allocatorIwEEEaSEw
__ZNSt3__212future_errorC1ENS_10error_codeE
__ZNSt3__212future_errorD1Ev
__ZNSt3__213__empty_stateIcED0Ev
__ZNSt3__213basic_filebufIcNS_11char_traitsIcEEE4openEPKcj
__ZNSt3__213basic_filebufIcNS_11char_traitsIcEEE5closeEv
__ZNSt3__213basic_filebufIcNS_11char_traitsIcEEEC1Ev
__ZNSt3__213basic_filebufIcNS_11char_traitsIcEEED1Ev
__ZNSt3__213basic_istreamIcNS_11char_traitsIcEEE4readEPcl
__ZNSt3__213basic_istreamIcNS_11char_traitsIcEEE6sentryC1ERS3_b
__ZNSt3__213basic_istreamIcNS_11char_traitsIcEEED2Ev
__ZNSt3__213basic_ostreamIcNS_11char_traitsIcEEE3putEc
__ZNSt3__213basic_ostreamIcNS_11char_traitsIcEEE5flushEv
__ZNSt3__213basic_ostreamIcNS_11char_traitsIcEEE5writeEPKcl
__ZNSt3__213basic_ostreamIcNS_11char_traitsIcEEE6sentryC1ERS3_
__ZNSt3__213basic_ostreamIcNS_11char_traitsIcEEE6sentryD1Ev
__ZNSt3__213basic_ostreamIcNS_11char_traitsIcEEED2Ev
__ZNSt3__213basic_ostreamIcNS_11char_traitsIcEEElsEPKv
__ZNSt3__213basic_ostreamIcNS_11char_traitsIcEEElsEPNS_15basic_streambufIcS2_EE
__ZNSt3__213basic_ostreamIcNS_11char_traitsIcEEElsEb
__ZNSt3__213basic_ostreamIcNS_11char_traitsIcEEElsEd
__ZNSt3__213basic_ostreamIcNS_11char_traitsIcEEElsEf
__ZNSt3__213basic_ostreamIcNS_11char_traitsIcEEElsEi
__ZNSt3__213basic_ostreamIcNS_11char_traitsIcEEElsEj
__ZNSt3__213basic_ostreamIcNS_11char_traitsIcEEElsEl
__ZNSt3__213basic_ostreamIcNS_11char_traitsIcEEElsEm
__ZNSt3__213basic_ostreamIcNS_11char_traitsIcEEElsEs
__ZNSt3__213basic_ostreamIcNS_11char_traitsIcEEElsEx
__ZNSt3__213basic_ostreamIcNS_11char_traitsIcEEElsEy
__ZNSt3__213match_resultsINS_11__wrap_iterIPKcEENS_9allocatorINS_9sub_matchIS4_EEEEE8__assignB8ue170004IS3_NS5_INS6_IS3_EEEEEEvS4_S4_RKNS0_IT_T0_EEb
__ZNSt3__214__shared_countD2Ev
__ZNSt3__214basic_ifstreamIcNS_11char_traitsIcEEED1Ev
__ZNSt3__214basic_iostreamIcNS_11char_traitsIcEEED2Ev
__ZNSt3__214basic_ofstreamIcNS_11char_traitsIcEEE4openERKNS_12basic_stringIcS2_NS_9allocatorIcEEEEj
__ZNSt3__214basic_ofstreamIcNS_11char_traitsIcEEED1Ev
__ZNSt3__215__get_classnameEPKcb
__ZNSt3__215__thread_structC1Ev
__ZNSt3__215__thread_structD1Ev
__ZNSt3__215__word_boundaryIcNS_12regex_traitsIcEEED0Ev
__ZNSt3__215__word_boundaryIcNS_12regex_traitsIcEEED2Ev
__ZNSt3__215basic_streambufIcNS_11char_traitsIcEEEC2Ev
__ZNSt3__215basic_streambufIcNS_11char_traitsIcEEED2Ev
__ZNSt3__215basic_stringbufIcNS_11char_traitsIcEENS_9allocatorIcEEE3strERKNS_12basic_stringIcS2_S4_EE
__ZNSt3__215future_categoryEv
__ZNSt3__215recursive_mutex4lockEv
__ZNSt3__215recursive_mutex6unlockEv
__ZNSt3__215recursive_mutexC1Ev
__ZNSt3__215recursive_mutexD1Ev
__ZNSt3__216__back_ref_icaseIcNS_12regex_traitsIcEEED0Ev
__ZNSt3__216__back_ref_icaseIcNS_12regex_traitsIcEEED2Ev
__ZNSt3__216__owns_one_stateIcED0Ev
__ZNSt3__216__owns_one_stateIcED2Ev
__ZNSt3__216allocator_traitsINS_9allocatorINS_11__hash_nodeINS_17__hash_value_typeINS_12basic_stringIcNS_11char_traitsIcEENS1_IcEEEEN6duckdb10unique_ptrINS9_25CommonTableExpressionInfoENS_14default_deleteISB_EELb1EEEEEPvEEEEE7destroyB8ue170004INS_4pairIKS8_SE_EEvvEEvRSI_PT_
__ZNSt3__217__assoc_sub_state10__sub_waitERNS_11unique_lockINS_5mutexEEE
__ZNSt3__217__assoc_sub_state13set_exceptionESt13exception_ptr
__ZNSt3__217__assoc_sub_state16__on_zero_sharedEv
__ZNSt3__217__assoc_sub_state4waitEv
__ZNSt3__217__assoc_sub_state9__executeEv
__ZNSt3__217__assoc_sub_state9set_valueEv
__ZNSt3__217__assoc_sub_stateD2Ev
__ZNSt3__217__repeat_one_loopIcED0Ev
__ZNSt3__217bad_function_callD1Ev
__ZNSt3__218__back_ref_collateIcNS_12regex_traitsIcEEED0Ev
__ZNSt3__218__back_ref_collateIcNS_12regex_traitsIcEEED2Ev
__ZNSt3__218__match_char_icaseIcNS_12regex_traitsIcEEED0Ev
__ZNSt3__218__match_char_icaseIcNS_12regex_traitsIcEEED2Ev
__ZNSt3__218basic_stringstreamIcNS_11char_traitsIcEENS_9allocatorIcEEED1Ev
__ZNSt3__218condition_variable10notify_allEv
__ZNSt3__218condition_variable15__do_timed_waitERNS_11unique_lockINS_5mutexEEENS_6chrono10time_pointINS5_12system_clockENS5_8durationIxNS_5ratioILx1ELx1000000000EEEEEEE
__ZNSt3__218condition_variable4waitERNS_11unique_lockINS_5mutexEEE
__ZNSt3__218condition_variableD1Ev
__ZNSt3__219__shared_weak_count14__release_weakEv
__ZNSt3__219__shared_weak_count4lockEv
__ZNSt3__219__shared_weak_countD2Ev
__ZNSt3__219__thread_local_dataEv
__ZNSt3__219basic_istringstreamIcNS_11char_traitsIcEENS_9allocatorIcEEED1Ev
__ZNSt3__219basic_ostringstreamIcNS_11char_traitsIcEENS_9allocatorIcEEED1Ev
__ZNSt3__220__bracket_expressionIcNS_12regex_traitsIcEEED0Ev
__ZNSt3__220__bracket_expressionIcNS_12regex_traitsIcEEED2Ev
__ZNSt3__220__get_collation_nameEPKc
__ZNSt3__220__l_anchor_multilineIcED0Ev
__ZNSt3__220__match_char_collateIcNS_12regex_traitsIcEEED0Ev
__ZNSt3__220__match_char_collateIcNS_12regex_traitsIcEEED2Ev
__ZNSt3__220__r_anchor_multilineIcED0Ev
__ZNSt3__220__shared_ptr_emplaceIN6duckdb11MyTransportENS_9allocatorIS2_EEED0Ev
__ZNSt3__220__shared_ptr_emplaceIN6duckdb11MyTransportENS_9allocatorIS2_EEED2Ev
__ZNSt3__220__shared_ptr_emplaceIN6duckdb12JoinRelationENS_9allocatorIS2_EEED0Ev
__ZNSt3__220__shared_ptr_emplaceIN6duckdb12JoinRelationENS_9allocatorIS2_EEED2Ev
__ZNSt3__220__shared_ptr_emplaceIN6duckdb13HTTPExceptionENS_9allocatorIS2_EEEC2B8ue170004IJRKiRKNS_12basic_stringIcNS_11char_traitsIcEENS3_IcEEEERKNS_8multimapISD_SD_NS_4lessISD_EENS3_INS_4pairISE_SD_EEEEEESF_SF_EEES4_DpOT_
__ZNSt3__220__shared_ptr_emplaceIN6duckdb13HTTPExceptionENS_9allocatorIS2_EEED0Ev
__ZNSt3__220__shared_ptr_emplaceIN6duckdb13HTTPExceptionENS_9allocatorIS2_EEED2Ev
__ZNSt3__220__shared_ptr_emplaceIN6duckdb13LimitRelationENS_9allocatorIS2_EEED0Ev
__ZNSt3__220__shared_ptr_emplaceIN6duckdb13LimitRelationENS_9allocatorIS2_EEED2Ev
__ZNSt3__220__shared_ptr_emplaceIN6duckdb13OrderRelationENS_9allocatorIS2_EEEC2B8ue170004IJNS_10shared_ptrINS1_8RelationEEENS1_6vectorINS1_11OrderByNodeELb1EEEEEES4_DpOT_
__ZNSt3__220__shared_ptr_emplaceIN6duckdb13OrderRelationENS_9allocatorIS2_EEED0Ev
__ZNSt3__220__shared_ptr_emplaceIN6duckdb13OrderRelationENS_9allocatorIS2_EEED2Ev
__ZNSt3__220__shared_ptr_emplaceIN6duckdb13ParquetReaderENS_9allocatorIS2_EEEC2B8ue170004IJRNS1_13ClientContextERNS_12basic_stringIcNS_11char_traitsIcEENS3_IcEEEERNS1_14ParquetOptionsEEEES4_DpOT_
__ZNSt3__220__shared_ptr_emplaceIN6duckdb13ParquetReaderENS_9allocatorIS2_EEED0Ev
__ZNSt3__220__shared_ptr_emplaceIN6duckdb13ParquetReaderENS_9allocatorIS2_EEED2Ev
__ZNSt3__220__shared_ptr_emplaceIN6duckdb13SelectionDataENS_9allocatorIS2_EEED0Ev
__ZNSt3__220__shared_ptr_emplaceIN6duckdb13SelectionDataENS_9allocatorIS2_EEED2Ev
__ZNSt3__220__shared_ptr_emplaceIN6duckdb13SetOpRelationENS_9allocatorIS2_EEED0Ev
__ZNSt3__220__shared_ptr_emplaceIN6duckdb13SetOpRelationENS_9allocatorIS2_EEED2Ev
__ZNSt3__220__shared_ptr_emplaceIN6duckdb14FilterRelationENS_9allocatorIS2_EEED0Ev
__ZNSt3__220__shared_ptr_emplaceIN6duckdb14FilterRelationENS_9allocatorIS2_EEED2Ev
__ZNSt3__220__shared_ptr_emplaceIN6duckdb16ResizeableBufferENS_9allocatorIS2_EEED0Ev
__ZNSt3__220__shared_ptr_emplaceIN6duckdb16ResizeableBufferENS_9allocatorIS2_EEED2Ev
__ZNSt3__220__shared_ptr_emplaceIN6duckdb17AggregateRelationENS_9allocatorIS2_EEED0Ev
__ZNSt3__220__shared_ptr_emplaceIN6duckdb17AggregateRelationENS_9allocatorIS2_EEED2Ev
__ZNSt3__220__shared_ptr_emplaceIN6duckdb18ProjectionRelationENS_9allocatorIS2_EEED0Ev
__ZNSt3__220__shared_ptr_emplaceIN6duckdb18ProjectionRelationENS_9allocatorIS2_EEED2Ev
__ZNSt3__220__shared_ptr_emplaceIN6duckdb19ThriftFileTransportENS_9allocatorIS2_EEED0Ev
__ZNSt3__220__shared_ptr_emplaceIN6duckdb19ThriftFileTransportENS_9allocatorIS2_EEED2Ev
__ZNSt3__220__shared_ptr_emplaceIN6duckdb20CrossProductRelationENS_9allocatorIS2_EEED0Ev
__ZNSt3__220__shared_ptr_emplaceIN6duckdb20CrossProductRelationENS_9allocatorIS2_EEED2Ev
__ZNSt3__220__shared_ptr_emplaceIN6duckdb21TemplatedValidityDataIyEENS_9allocatorIS3_EEED0Ev
__ZNSt3__220__shared_ptr_emplaceIN6duckdb21TemplatedValidityDataIyEENS_9allocatorIS3_EEED2Ev
__ZNSt3__220__shared_ptr_emplaceIN6duckdb24ParquetFileMetadataCacheENS_9allocatorIS2_EEED0Ev
__ZNSt3__220__shared_ptr_emplaceIN6duckdb24ParquetFileMetadataCacheENS_9allocatorIS2_EEED2Ev
__ZNSt3__220__shared_ptr_emplaceIN6duckdb25ParquetStringVectorBufferENS_9allocatorIS2_EEED0Ev
__ZNSt3__220__shared_ptr_emplaceIN6duckdb25ParquetStringVectorBufferENS_9allocatorIS2_EEED2Ev
__ZNSt3__220__shared_ptr_emplaceIN6duckdb9DataTableENS_9allocatorIS2_EEED0Ev
__ZNSt3__220__shared_ptr_emplaceIN6duckdb9DataTableENS_9allocatorIS2_EEED2Ev
__ZNSt3__220__shared_ptr_emplaceIN6duckdb9ExceptionENS_9allocatorIS2_EEED0Ev
__ZNSt3__220__shared_ptr_emplaceIN6duckdb9ExceptionENS_9allocatorIS2_EEED2Ev
__ZNSt3__220__shared_ptr_pointerIPN13duckdb_apache6thrift8protocol9TProtocolENS_10shared_ptrIS4_E27__shared_ptr_default_deleteIS4_S4_EENS_9allocatorIS4_EEED0Ev
__ZNSt3__220__shared_ptr_pointerIPN6duckdb13ParquetReaderENS_14default_deleteIS2_EENS_9allocatorIS2_EEED0Ev
__ZNSt3__220__shared_ptr_pointerIPNS_13__empty_stateIcEENS_10shared_ptrIS2_E27__shared_ptr_default_deleteIS2_S2_EENS_9allocatorIS2_EEED0Ev
__ZNSt3__220__throw_system_errorEiPKc
__ZNSt3__221__empty_non_own_stateIcED0Ev
__ZNSt3__223__match_any_but_newlineIcED0Ev
__ZNSt3__226__end_marked_subexpressionIcED0Ev
__ZNSt3__228__begin_marked_subexpressionIcED0Ev
__ZNSt3__24cerrE
__ZNSt3__24coutE
__ZNSt3__24pairIKNS_12basic_stringIcNS_11char_traitsIcEENS_9allocatorIcEEEEN6duckdb5ValueEEC2B8ue170004IJRS7_EJEEENS_21piecewise_construct_tENS_5tupleIJDpT_EEENSE_IJDpT0_EEE
__ZNSt3__24pairIKNS_12basic_stringIcNS_11char_traitsIcEENS_9allocatorIcEEEEN6duckdb5ValueEED2Ev
__ZNSt3__24pairIKNS_12basic_stringIcNS_11char_traitsIcEENS_9allocatorIcEEEES6_EC2B8ue170004IRA11_KcRA6_SA_TnPNS_9enable_ifIXclsr10_CheckArgsE17__enable_implicitIT_T0_EEEvE4typeELPv0EEEOSG_OSH_
__ZNSt3__24pairINS_12basic_stringIcNS_11char_traitsIcEENS_9allocatorIcEEEEN6duckdb11LogicalTypeEEC2B8ue170004IPKcNS7_13LogicalTypeIdETnPNS_9enable_ifIXclsr10_CheckArgsE17__enable_implicitIT_T0_EEEvE4typeELPv0EEEONS0_ISF_SG_EE
__ZNSt3__24pairINS_12basic_stringIcNS_11char_traitsIcEENS_9allocatorIcEEEEN6duckdb11LogicalTypeEEC2B8ue170004IRA4_KcRKNS7_13LogicalTypeIdETnPNS_9enable_ifIXclsr10_CheckArgsE17__enable_implicitIT_T0_EEEvE4typeELPv0EEEOSI_OSJ_
__ZNSt3__24pairINS_12basic_stringIcNS_11char_traitsIcEENS_9allocatorIcEEEEN6duckdb11LogicalTypeEED2Ev
__ZNSt3__24pairINS_12basic_stringIcNS_11char_traitsIcEENS_9allocatorIcEEEEN6duckdb7FieldIDEED2Ev
__ZNSt3__24pairINS_12basic_stringIcNS_11char_traitsIcEENS_9allocatorIcEEEES6_ED2Ev
__ZNSt3__24pairIRNS_12basic_stringIcNS_11char_traitsIcEENS_9allocatorIcEEEERN6duckdb11LogicalTypeEEaSB8ue170004IKS6_S9_TnPNS_9enable_ifIXaasr13is_assignableIS7_RKT_EE5valuesr13is_assignableISA_RKT0_EE5valueEvE4typeELPv0EEERSB_RKNS0_ISF_SI_EE
__ZNSt3__24pairIRNS_12basic_stringIcNS_11char_traitsIcEENS_9allocatorIcEEEES7_EaSB8ue170004IKS6_S6_TnPNS_9enable_ifIXaasr13is_assignableIS7_RKT_EE5valuesr13is_assignableIS7_RKT0_EE5valueEvE4typeELPv0EEERS8_RKNS0_ISC_SF_EE
__ZNSt3__24stodERKNS_12basic_stringIwNS_11char_traitsIwEENS_9allocatorIwEEEEPm
__ZNSt3__24stoiERKNS_12basic_stringIcNS_11char_traitsIcEENS_9allocatorIcEEEEPmi
__ZNSt3__24stoiERKNS_12basic_stringIwNS_11char_traitsIwEENS_9allocatorIwEEEEPmi
__ZNSt3__25ctypeIcE2idE
__ZNSt3__25mutex4lockEv
__ZNSt3__25mutex6unlockEv
__ZNSt3__25mutexD1Ev
__ZNSt3__25stoulERKNS_12basic_stringIcNS_11char_traitsIcEENS_9allocatorIcEEEEPmi
__ZNSt3__26__loopIcED0Ev
__ZNSt3__26__treeINS_12__value_typeINS_12basic_stringIcNS_11char_traitsIcEENS_9allocatorIcEEEES7_EENS_19__map_value_compareIS7_S8_NS_4lessIS7_EELb1EEENS5_IS8_EEE14__assign_multiINS_21__tree_const_iteratorIS8_PNS_11__tree_nodeIS8_PvEElEEEEvT_SM_
__ZNSt3__26__treeINS_12__value_typeINS_12basic_stringIcNS_11char_traitsIcEENS_9allocatorIcEEEES7_EENS_19__map_value_compareIS7_S8_NS_4lessIS7_EELb1EEENS5_IS8_EEE15__emplace_multiIJRKNS_4pairIKS7_S7_EEEEENS_15__tree_iteratorIS8_PNS_11__tree_nodeIS8_PvEElEEDpOT_
__ZNSt3__26__treeINS_12__value_typeINS_12basic_stringIcNS_11char_traitsIcEENS_9allocatorIcEEEES7_EENS_19__map_value_compareIS7_S8_NS_4lessIS7_EELb1EEENS5_IS8_EEE16__construct_nodeIJRKNS_4pairIKS7_S7_EEEEENS_10unique_ptrINS_11__tree_nodeIS8_PvEENS_22__tree_node_destructorINS5_ISO_EEEEEEDpOT_
__ZNSt3__26__treeINS_12__value_typeINS_12basic_stringIcNS_11char_traitsIcEENS_9allocatorIcEEEES7_EENS_19__map_value_compareIS7_S8_NS_4lessIS7_EELb1EEENS5_IS8_EEE16__construct_nodeIJRNS_4pairIKS7_S7_EEEEENS_10unique_ptrINS_11__tree_nodeIS8_PvEENS_22__tree_node_destructorINS5_ISN_EEEEEEDpOT_
__ZNSt3__26__treeINS_12basic_stringIcNS_11char_traitsIcEENS_9allocatorIcEEEENS_4lessIS6_EENS4_IS6_EEE25__emplace_unique_key_argsIS6_JRKS6_EEENS_4pairINS_15__tree_iteratorIS6_PNS_11__tree_nodeIS6_PvEElEEbEERKT_DpOT0_
__ZNSt3__26chrono12steady_clock3nowEv
__ZNSt3__26chrono12system_clock3nowEv
__ZNSt3__26chrono12system_clock9to_time_tERKNS0_10time_pointIS1_NS0_8durationIxNS_5ratioILx1ELx1000000EEEEEEE
__ZNSt3__26futureIvEC1EPNS_17__assoc_sub_stateE
__ZNSt3__26futureIvED1Ev
__ZNSt3__26locale7classicEv
__ZNSt3__26localeC1ERKS0_
__ZNSt3__26localeC1Ev
__ZNSt3__26localeD1Ev
__ZNSt3__26localeaSERKS0_
__ZNSt3__26thread4joinEv
__ZNSt3__26thread6detachEv
__ZNSt3__26threadD1Ev
__ZNSt3__26vectorIN14duckdb_parquet6format11ColumnChunkENS_9allocatorIS3_EEE18__assign_with_sizeB8ue170004IPS3_S8_EEvT_T0_l
__ZNSt3__26vectorIN14duckdb_parquet6format11ColumnChunkENS_9allocatorIS3_EEE21__push_back_slow_pathIS3_EEvOT_
__ZNSt3__26vectorIN14duckdb_parquet6format11ColumnOrderENS_9allocatorIS3_EEE18__assign_with_sizeB8ue170004IPS3_S8_EEvT_T0_l
__ZNSt3__26vectorIN14duckdb_parquet6format12PageLocationENS_9allocatorIS3_EEE18__assign_with_sizeB8ue170004IPS3_S8_EEvT_T0_l
__ZNSt3__26vectorIN14duckdb_parquet6format13SchemaElementENS_9allocatorIS3_EEE18__assign_with_sizeB8ue170004IPS3_S8_EEvT_T0_l
__ZNSt3__26vectorIN14duckdb_parquet6format13SchemaElementENS_9allocatorIS3_EEE21__push_back_slow_pathIS3_EEvOT_
__ZNSt3__26vectorIN14duckdb_parquet6format13SortingColumnENS_9allocatorIS3_EEE18__assign_with_sizeB8ue170004IPS3_S8_EEvT_T0_l
__ZNSt3__26vectorIN14duckdb_parquet6format17PageEncodingStatsENS_9allocatorIS3_EEE18__assign_with_sizeB8ue170004IPS3_S8_EEvT_T0_l
__ZNSt3__26vectorIN14duckdb_parquet6format8Encoding4typeENS_9allocatorIS4_EEE18__assign_with_sizeB8ue170004IPS4_S9_EEvT_T0_l
__ZNSt3__26vectorIN14duckdb_parquet6format8KeyValueENS_9allocatorIS3_EEE18__assign_with_sizeB8ue170004IPS3_S8_EEvT_T0_l
__ZNSt3__26vectorIN14duckdb_parquet6format8RowGroupENS_9allocatorIS3_EEE18__assign_with_sizeB8ue170004IPS3_S8_EEvT_T0_l
__ZNSt3__26vectorIN14duckdb_parquet6format8RowGroupENS_9allocatorIS3_EEE21__push_back_slow_pathIRKS3_EEvOT_
__ZNSt3__26vectorIN6duckdb10unique_ptrINS1_10ConstraintENS_14default_deleteIS3_EELb1EEENS_9allocatorIS6_EEE21__push_back_slow_pathIS6_EEvOT_
__ZNSt3__26vectorIN6duckdb10unique_ptrINS1_10ExpressionENS_14default_deleteIS3_EELb1EEENS_9allocatorIS6_EEE21__push_back_slow_pathIS6_EEvOT_
__ZNSt3__26vectorIN6duckdb10unique_ptrINS1_12ColumnReaderENS_14default_deleteIS3_EELb1EEENS_9allocatorIS6_EEE21__push_back_slow_pathIS6_EEvOT_
__ZNSt3__26vectorIN6duckdb10unique_ptrINS1_12ColumnWriterENS_14default_deleteIS3_EELb1EEENS_9allocatorIS6_EEE21__push_back_slow_pathIS6_EEvOT_
__ZNSt3__26vectorIN6duckdb10unique_ptrINS1_13ParquetReaderENS_14default_deleteIS3_EELb1EEENS_9allocatorIS6_EEE21__push_back_slow_pathIS6_EEvOT_
__ZNSt3__26vectorIN6duckdb10unique_ptrINS1_14ResultModifierENS_14default_deleteIS3_EELb1EEENS_9allocatorIS6_EEE21__push_back_slow_pathIS6_EEvOT_
__ZNSt3__26vectorIN6duckdb10unique_ptrINS1_15LogicalOperatorENS_14default_deleteIS3_EELb1EEENS_9allocatorIS6_EEE21__push_back_slow_pathIS6_EEvOT_
__ZNSt3__26vectorIN6duckdb10unique_ptrINS1_15LogicalOperatorENS_14default_deleteIS3_EELb1EEENS_9allocatorIS6_EEE24__emplace_back_slow_pathIJS6_EEEvDpOT_
__ZNSt3__26vectorIN6duckdb10unique_ptrINS1_16ParsedExpressionENS_14default_deleteIS3_EELb1EEENS_9allocatorIS6_EEE21__push_back_slow_pathIS6_EEvOT_
__ZNSt3__26vectorIN6duckdb10unique_ptrINS1_16ParsedExpressionENS_14default_deleteIS3_EELb1EEENS_9allocatorIS6_EEE24__emplace_back_slow_pathIJNS2_INS1_18ConstantExpressionENS4_ISB_EELb1EEEEEEvDpOT_
__ZNSt3__26vectorIN6duckdb10unique_ptrINS1_16ParsedExpressionENS_14default_deleteIS3_EELb1EEENS_9allocatorIS6_EEE24__emplace_back_slow_pathIJNS2_INS1_18FunctionExpressionENS4_ISB_EELb1EEEEEEvDpOT_
__ZNSt3__26vectorIN6duckdb10unique_ptrINS1_16ParsedExpressionENS_14default_deleteIS3_EELb1EEENS_9allocatorIS6_EEE24__emplace_back_slow_pathIJS6_EEEvDpOT_
__ZNSt3__26vectorIN6duckdb10unique_ptrINS1_16PhysicalOperatorENS_14default_deleteIS3_EELb1EEENS_9allocatorIS6_EEE21__push_back_slow_pathIS6_EEvOT_
__ZNSt3__26vectorIN6duckdb10unique_ptrINS1_16PhysicalOperatorENS_14default_deleteIS3_EELb1EEENS_9allocatorIS6_EEE24__emplace_back_slow_pathIJS6_EEEvDpOT_
__ZNSt3__26vectorIN6duckdb10unique_ptrINS1_17ColumnWriterStateENS_14default_deleteIS3_EELb1EEENS_9allocatorIS6_EEE21__push_back_slow_pathIS6_EEvOT_
__ZNSt3__26vectorIN6duckdb11LogicalTypeENS_9allocatorIS2_EEE16__init_with_sizeB8ue170004IPS2_S7_EEvT_T0_m
__ZNSt3__26vectorIN6duckdb11LogicalTypeENS_9allocatorIS2_EEE18__assign_with_sizeB8ue170004IPS2_S7_EEvT_T0_l
__ZNSt3__26vectorIN6duckdb11LogicalTypeENS_9allocatorIS2_EEE21__push_back_slow_pathIRKS2_EEvOT_
__ZNSt3__26vectorIN6duckdb11LogicalTypeENS_9allocatorIS2_EEE21__push_back_slow_pathIS2_EEvOT_
__ZNSt3__26vectorIN6duckdb11LogicalTypeENS_9allocatorIS2_EEE24__emplace_back_slow_pathIJRKNS1_13LogicalTypeIdEEEEvDpOT_
__ZNSt3__26vectorIN6duckdb11LogicalTypeENS_9allocatorIS2_EEE24__emplace_back_slow_pathIJRKS2_EEEvDpOT_
__ZNSt3__26vectorIN6duckdb11LogicalTypeENS_9allocatorIS2_EEE24__emplace_back_slow_pathIJRS2_EEEvDpOT_
__ZNSt3__26vectorIN6duckdb11OrderByNodeENS_9allocatorIS2_EEE21__push_back_slow_pathIS2_EEvOT_
__ZNSt3__26vectorIN6duckdb11OrderByNodeENS_9allocatorIS2_EEE24__emplace_back_slow_pathIJRNS1_9OrderTypeERNS1_15OrderByNullTypeENS1_10unique_ptrINS1_16ParsedExpressionENS_14default_deleteISC_EELb1EEEEEEvDpOT_
__ZNSt3__26vectorIN6duckdb11PivotColumnENS_9allocatorIS2_EEE21__push_back_slow_pathIS2_EEvOT_
__ZNSt3__26vectorIN6duckdb13TableFunctionENS_9allocatorIS2_EEE16__init_with_sizeB8ue170004IPS2_S7_EEvT_T0_m
__ZNSt3__26vectorIN6duckdb13TableFunctionENS_9allocatorIS2_EEE21__push_back_slow_pathIS2_EEvOT_
__ZNSt3__26vectorIN6duckdb14PragmaFunctionENS_9allocatorIS2_EEE21__push_back_slow_pathIS2_EEvOT_
__ZNSt3__26vectorIN6duckdb14PragmaFunctionENS_9allocatorIS2_EEE22__construct_one_at_endB8ue170004IJS2_EEEvDpOT_
__ZNSt3__26vectorIN6duckdb14ScalarFunctionENS_9allocatorIS2_EEE21__push_back_slow_pathIS2_EEvOT_
__ZNSt3__26vectorIN6duckdb14StrpTimeFormatENS_9allocatorIS2_EEE16__init_with_sizeB8ue170004IPS2_S7_EEvT_T0_m
__ZNSt3__26vectorIN6duckdb14StrpTimeFormatENS_9allocatorIS2_EEE24__emplace_back_slow_pathIJRS2_EEEvDpOT_
__ZNSt3__26vectorIN6duckdb15ReplacementScanENS_9allocatorIS2_EEE24__emplace_back_slow_pathIJRFNS1_10unique_ptrINS1_8TableRefENS_14default_deleteIS8_EELb1EEERNS1_13ClientContextERKNS_12basic_stringIcNS_11char_traitsIcEENS3_IcEEEEPNS1_19ReplacementScanDataEEEEEvDpOT_
__ZNSt3__26vectorIN6duckdb16ColumnDefinitionENS_9allocatorIS2_EEE21__push_back_slow_pathIS2_EEvOT_
__ZNSt3__26vectorIN6duckdb16PivotColumnEntryENS_9allocatorIS2_EEE21__push_back_slow_pathIS2_EEvOT_
__ZNSt3__26vectorIN6duckdb16StrTimeSpecifierENS_9allocatorIS2_EEE18__assign_with_sizeB8ue170004IPS2_S7_EEvT_T0_l
__ZNSt3__26vectorIN6duckdb20ExceptionFormatValueENS_9allocatorIS2_EEE21__push_back_slow_pathIS2_EEvOT_
__ZNSt3__26vectorIN6duckdb20PageWriteInformationENS_9allocatorIS2_EEE21__push_back_slow_pathIS2_EEvOT_
__ZNSt3__26vectorIN6duckdb5ValueENS_9allocatorIS2_EEE16__init_with_sizeB8ue170004IPS2_S7_EEvT_T0_m
__ZNSt3__26vectorIN6duckdb5ValueENS_9allocatorIS2_EEE18__assign_with_sizeB8ue170004IPS2_S7_EEvT_T0_l
__ZNSt3__26vectorIN6duckdb5ValueENS_9allocatorIS2_EEE21__push_back_slow_pathIS2_EEvOT_
__ZNSt3__26vectorIN6duckdb5ValueENS_9allocatorIS2_EEE24__emplace_back_slow_pathIJRKNS_12basic_stringIcNS_11char_traitsIcEENS3_IcEEEEEEEvDpOT_
__ZNSt3__26vectorIN6duckdb6vectorINS1_10unique_ptrINS1_16ParsedExpressionENS_14default_deleteIS4_EELb1EEELb1EEENS_9allocatorIS8_EEE21__push_back_slow_pathIS8_EEvOT_
__ZNSt3__26vectorIN6duckdb9CaseCheckENS_9allocatorIS2_EEE21__push_back_slow_pathIS2_EEvOT_
__ZNSt3__26vectorIN6duckdb9IndexInfoENS_9allocatorIS2_EEE21__push_back_slow_pathIS2_EEvOT_
__ZNSt3__26vectorINS_10shared_ptrIN6duckdb13ClientContextEEENS_9allocatorIS4_EEE21__push_back_slow_pathIS4_EEvOT_
__ZNSt3__26vectorINS_10shared_ptrIN6duckdb13ParquetReaderEEENS_9allocatorIS4_EEE21__push_back_slow_pathIS4_EEvOT_
__ZNSt3__26vectorINS_10shared_ptrIN6duckdb4TaskEEENS_9allocatorIS4_EEE21__push_back_slow_pathIS4_EEvOT_
__ZNSt3__26vectorINS_12basic_stringIcNS_11char_traitsIcEENS_9allocatorIcEEEENS4_IS6_EEE16__init_with_sizeB8ue170004IPS6_SA_EEvT_T0_m
__ZNSt3__26vectorINS_12basic_stringIcNS_11char_traitsIcEENS_9allocatorIcEEEENS4_IS6_EEE18__assign_with_sizeB8ue170004IPS6_SA_EEvT_T0_l
__ZNSt3__26vectorINS_12basic_stringIcNS_11char_traitsIcEENS_9allocatorIcEEEENS4_IS6_EEE18__insert_with_sizeB8ue170004INS_11__wrap_iterIPS6_EESC_EESC_NSA_IPKS6_EET_T0_l
__ZNSt3__26vectorINS_12basic_stringIcNS_11char_traitsIcEENS_9allocatorIcEEEENS4_IS6_EEE21__push_back_slow_pathIRKS6_EEvOT_
__ZNSt3__26vectorINS_12basic_stringIcNS_11char_traitsIcEENS_9allocatorIcEEEENS4_IS6_EEE21__push_back_slow_pathIS6_EEvOT_
__ZNSt3__26vectorINS_12basic_stringIcNS_11char_traitsIcEENS_9allocatorIcEEEENS4_IS6_EEE24__emplace_back_slow_pathIJRA10_KcEEEvDpOT_
__ZNSt3__26vectorINS_12basic_stringIcNS_11char_traitsIcEENS_9allocatorIcEEEENS4_IS6_EEE24__emplace_back_slow_pathIJRA11_KcEEEvDpOT_
__ZNSt3__26vectorINS_12basic_stringIcNS_11char_traitsIcEENS_9allocatorIcEEEENS4_IS6_EEE24__emplace_back_slow_pathIJRA12_KcEEEvDpOT_
__ZNSt3__26vectorINS_12basic_stringIcNS_11char_traitsIcEENS_9allocatorIcEEEENS4_IS6_EEE24__emplace_back_slow_pathIJRA13_KcEEEvDpOT_
__ZNSt3__26vectorINS_12basic_stringIcNS_11char_traitsIcEENS_9allocatorIcEEEENS4_IS6_EEE24__emplace_back_slow_pathIJRA14_KcEEEvDpOT_
__ZNSt3__26vectorINS_12basic_stringIcNS_11char_traitsIcEENS_9allocatorIcEEEENS4_IS6_EEE24__emplace_back_slow_pathIJRA15_KcEEEvDpOT_
__ZNSt3__26vectorINS_12basic_stringIcNS_11char_traitsIcEENS_9allocatorIcEEEENS4_IS6_EEE24__emplace_back_slow_pathIJRA16_KcEEEvDpOT_
__ZNSt3__26vectorINS_12basic_stringIcNS_11char_traitsIcEENS_9allocatorIcEEEENS4_IS6_EEE24__emplace_back_slow_pathIJRA17_KcEEEvDpOT_
__ZNSt3__26vectorINS_12basic_stringIcNS_11char_traitsIcEENS_9allocatorIcEEEENS4_IS6_EEE24__emplace_back_slow_pathIJRA18_KcEEEvDpOT_
__ZNSt3__26vectorINS_12basic_stringIcNS_11char_traitsIcEENS_9allocatorIcEEEENS4_IS6_EEE24__emplace_back_slow_pathIJRA19_KcEEEvDpOT_
__ZNSt3__26vectorINS_12basic_stringIcNS_11char_traitsIcEENS_9allocatorIcEEEENS4_IS6_EEE24__emplace_back_slow_pathIJRA21_KcEEEvDpOT_
__ZNSt3__26vectorINS_12basic_stringIcNS_11char_traitsIcEENS_9allocatorIcEEEENS4_IS6_EEE24__emplace_back_slow_pathIJRA22_KcEEEvDpOT_
__ZNSt3__26vectorINS_12basic_stringIcNS_11char_traitsIcEENS_9allocatorIcEEEENS4_IS6_EEE24__emplace_back_slow_pathIJRA23_KcEEEvDpOT_
__ZNSt3__26vectorINS_12basic_stringIcNS_11char_traitsIcEENS_9allocatorIcEEEENS4_IS6_EEE24__emplace_back_slow_pathIJRA24_KcEEEvDpOT_
__ZNSt3__26vectorINS_12basic_stringIcNS_11char_traitsIcEENS_9allocatorIcEEEENS4_IS6_EEE24__emplace_back_slow_pathIJRA4_KcEEEvDpOT_
__ZNSt3__26vectorINS_12basic_stringIcNS_11char_traitsIcEENS_9allocatorIcEEEENS4_IS6_EEE24__emplace_back_slow_pathIJRA5_KcEEEvDpOT_
__ZNSt3__26vectorINS_12basic_stringIcNS_11char_traitsIcEENS_9allocatorIcEEEENS4_IS6_EEE24__emplace_back_slow_pathIJRA6_KcEEEvDpOT_
__ZNSt3__26vectorINS_12basic_stringIcNS_11char_traitsIcEENS_9allocatorIcEEEENS4_IS6_EEE24__emplace_back_slow_pathIJRA7_KcEEEvDpOT_
__ZNSt3__26vectorINS_12basic_stringIcNS_11char_traitsIcEENS_9allocatorIcEEEENS4_IS6_EEE24__emplace_back_slow_pathIJRA8_KcEEEvDpOT_
__ZNSt3__26vectorINS_12basic_stringIcNS_11char_traitsIcEENS_9allocatorIcEEEENS4_IS6_EEE24__emplace_back_slow_pathIJRA9_KcEEEvDpOT_
__ZNSt3__26vectorINS_12basic_stringIcNS_11char_traitsIcEENS_9allocatorIcEEEENS4_IS6_EEE24__emplace_back_slow_pathIJRKS6_EEEvDpOT_
__ZNSt3__26vectorINS_12basic_stringIcNS_11char_traitsIcEENS_9allocatorIcEEEENS4_IS6_EEE24__emplace_back_slow_pathIJRS6_EEEvDpOT_
__ZNSt3__26vectorINS_12basic_stringIcNS_11char_traitsIcEENS_9allocatorIcEEEENS4_IS6_EEE24__emplace_back_slow_pathIJS6_EEEvDpOT_
__ZNSt3__26vectorINS_3setIyNS_4lessIyEENS_9allocatorIyEEEENS4_IS6_EEE21__push_back_slow_pathIS6_EEvOT_
__ZNSt3__26vectorINS_4pairINS_12basic_stringIcNS_11char_traitsIcEENS_9allocatorIcEEEEN6duckdb11LogicalTypeEEENS5_ISA_EEE21__push_back_slow_pathISA_EEvOT_
__ZNSt3__26vectorINS_4pairINS_12basic_stringIcNS_11char_traitsIcEENS_9allocatorIcEEEEN6duckdb11LogicalTypeEEENS5_ISA_EEE24__emplace_back_slow_pathIJNS1_IS7_NS8_13LogicalTypeIdEEEEEEvDpOT_
__ZNSt3__26vectorINS_4pairINS_12basic_stringIcNS_11char_traitsIcEENS_9allocatorIcEEEEN6duckdb11LogicalTypeEEENS5_ISA_EEE24__emplace_back_slow_pathIJRKS7_S9_EEEvDpOT_
__ZNSt3__26vectorINS_4pairINS_12basic_stringIcNS_11char_traitsIcEENS_9allocatorIcEEEEN6duckdb11LogicalTypeEEENS5_ISA_EEE24__emplace_back_slow_pathIJRPKcS9_EEEvDpOT_
__ZNSt3__26vectorINS_4pairINS_12basic_stringIcNS_11char_traitsIcEENS_9allocatorIcEEEES7_EENS5_IS8_EEE21__push_back_slow_pathIS8_EEvOT_
__ZNSt3__26vectorINS_4pairINS_12basic_stringIcNS_11char_traitsIcEENS_9allocatorIcEEEEyEENS5_IS8_EEE16__init_with_sizeB8ue170004IPS8_SC_EEvT_T0_m
__ZNSt3__26vectorINS_4pairImPKcEENS_9allocatorIS4_EEE18__assign_with_sizeB8ue170004IPS4_S9_EEvT_T0_l
__ZNSt3__26vectorINS_7__stateIcEENS_9allocatorIS2_EEE21__push_back_slow_pathIS2_EEvOT_
__ZNSt3__26vectorINS_9sub_matchIPKcEENS_9allocatorIS4_EEE18__assign_with_sizeB8ue170004IPS4_S9_EEvT_T0_l
__ZNSt3__26vectorIiNS_9allocatorIiEEE18__assign_with_sizeB8ue170004IPiS5_EEvT_T0_l
__ZNSt3__26vectorIxNS_9allocatorIxEEE18__assign_with_sizeB8ue170004IPxS5_EEvT_T0_l
__ZNSt3__26vectorIyNS_9allocatorIyEEE18__assign_with_sizeB8ue170004IPyS5_EEvT_T0_l
__ZNSt3__27__stateIcEC2ERKS1_
__ZNSt3__27__stateIcED2Ev
__ZNSt3__27collateIcE2idE
__ZNSt3__28ios_base33__set_badbit_and_consider_rethrowEv
__ZNSt3__28ios_base4initEPv
__ZNSt3__28ios_base5clearEj
__ZNSt3__28ios_base5imbueERKNS_6localeE
__ZNSt3__28multimapINS_12basic_stringIcNS_11char_traitsIcEENS_9allocatorIcEEEES6_NS_4lessIS6_EENS4_INS_4pairIKS6_S6_EEEEE6insertB8ue170004INS_14__map_iteratorINS_15__tree_iteratorINS_12__value_typeIS6_S6_EEPNS_11__tree_nodeISI_PvEElEEEEEEvT_SP_
__ZNSt3__28multimapINS_12basic_stringIcNS_11char_traitsIcEENS_9allocatorIcEEEES6_NS_4lessIS6_EENS4_INS_4pairIKS6_S6_EEEEE6insertB8ue170004INS_20__map_const_iteratorINS_21__tree_const_iteratorINS_12__value_typeIS6_S6_EEPNS_11__tree_nodeISI_PvEElEEEEEEvT_SP_
__ZNSt3__28time_putIcNS_19ostreambuf_iteratorIcNS_11char_traitsIcEEEEE2idE
__ZNSt3__29basic_iosIcNS_11char_traitsIcEEED2Ev
__ZNSt3__29to_stringEd
__ZNSt3__29to_stringEi
__ZNSt3__29to_stringEj
__ZNSt3__29to_stringEm
__ZNSt3__29to_stringEx
__ZNSt3__29to_stringEy
__ZNSt3__2plIcNS_11char_traitsIcEENS_9allocatorIcEEEENS_12basic_stringIT_T0_T1_EEPKS6_RKS9_
__ZNSt9bad_allocC1Ev
__ZNSt9bad_allocD1Ev
__ZNSt9exceptionD1Ev
__ZNSt9exceptionD2Ev
__ZSt17current_exceptionv
__ZSt17rethrow_exceptionSt13exception_ptr
__ZSt7nothrow
__ZSt9terminatev
__ZTIFvRN6duckdb9DataChunkERNS_15ExpressionStateERNS_6VectorEE
__ZTIN10emscripten11memory_viewIhEE
__ZTIN10emscripten3valE
__ZTIN13duckdb_apache6thrift10TExceptionE
__ZTIN13duckdb_apache6thrift5TBaseE
__ZTIN13duckdb_apache6thrift8protocol16TProtocolFactoryE
__ZTIN13duckdb_apache6thrift8protocol16TVirtualProtocolINS1_17TCompactProtocolTIN6duckdb11MyTransportEEENS1_17TProtocolDefaultsEEE
__ZTIN13duckdb_apache6thrift8protocol16TVirtualProtocolINS1_17TCompactProtocolTIN6duckdb19ThriftFileTransportEEENS1_17TProtocolDefaultsEEE
__ZTIN13duckdb_apache6thrift8protocol16TVirtualProtocolINS1_17TCompactProtocolTINS0_9transport10TTransportEEENS1_17TProtocolDefaultsEEE
__ZTIN13duckdb_apache6thrift8protocol17TCompactProtocolTIN6duckdb11MyTransportEEE
__ZTIN13duckdb_apache6thrift8protocol17TCompactProtocolTIN6duckdb19ThriftFileTransportEEE
__ZTIN13duckdb_apache6thrift8protocol17TCompactProtocolTINS0_9transport10TTransportEEE
__ZTIN13duckdb_apache6thrift8protocol17TProtocolDefaultsE
__ZTIN13duckdb_apache6thrift8protocol18TProtocolExceptionE
__ZTIN13duckdb_apache6thrift8protocol24TCompactProtocolFactoryTIN6duckdb11MyTransportEEE
__ZTIN13duckdb_apache6thrift8protocol9TProtocolE
__ZTIN13duckdb_apache6thrift9transport10TTransportE
__ZTIN13duckdb_apache6thrift9transport11TBufferBaseE
__ZTIN13duckdb_apache6thrift9transport13TMemoryBufferE
__ZTIN13duckdb_apache6thrift9transport17TVirtualTransportIN6duckdb19ThriftFileTransportENS1_18TTransportDefaultsEEE
__ZTIN13duckdb_apache6thrift9transport17TVirtualTransportINS1_11TBufferBaseENS1_18TTransportDefaultsEEE
__ZTIN13duckdb_apache6thrift9transport17TVirtualTransportINS1_13TMemoryBufferENS1_11TBufferBaseEEE
__ZTIN13duckdb_apache6thrift9transport18TTransportDefaultsE
__ZTIN13duckdb_apache6thrift9transport19TTransportExceptionE
__ZTIN13duckdb_snappy15ByteArraySourceE
__ZTIN13duckdb_snappy22UncheckedByteArraySinkE
__ZTIN13duckdb_snappy4SinkE
__ZTIN13duckdb_snappy6SourceE
__ZTIN14duckdb_parquet6format10PageHeaderE
__ZTIN14duckdb_parquet6format10StatisticsE
__ZTIN14duckdb_parquet6format10StringTypeE
__ZTIN14duckdb_parquet6format11AesGcmCtrV1E
__ZTIN14duckdb_parquet6format11ColumnChunkE
__ZTIN14duckdb_parquet6format11ColumnIndexE
__ZTIN14duckdb_parquet6format11ColumnOrderE
__ZTIN14duckdb_parquet6format11DecimalTypeE
__ZTIN14duckdb_parquet6format11LogicalTypeE
__ZTIN14duckdb_parquet6format11NanoSecondsE
__ZTIN14duckdb_parquet6format11OffsetIndexE
__ZTIN14duckdb_parquet6format12FileMetaDataE
__ZTIN14duckdb_parquet6format12MicroSecondsE
__ZTIN14duckdb_parquet6format12MilliSecondsE
__ZTIN14duckdb_parquet6format12PageLocationE
__ZTIN14duckdb_parquet6format13SchemaElementE
__ZTIN14duckdb_parquet6format13SortingColumnE
__ZTIN14duckdb_parquet6format13TimestampTypeE
__ZTIN14duckdb_parquet6format14ColumnMetaDataE
__ZTIN14duckdb_parquet6format14DataPageHeaderE
__ZTIN14duckdb_parquet6format15IndexPageHeaderE
__ZTIN14duckdb_parquet6format16DataPageHeaderV2E
__ZTIN14duckdb_parquet6format16TypeDefinedOrderE
__ZTIN14duckdb_parquet6format17PageEncodingStatsE
__ZTIN14duckdb_parquet6format18FileCryptoMetaDataE
__ZTIN14duckdb_parquet6format19EncryptionAlgorithmE
__ZTIN14duckdb_parquet6format20ColumnCryptoMetaDataE
__ZTIN14duckdb_parquet6format20DictionaryPageHeaderE
__ZTIN14duckdb_parquet6format23EncryptionWithColumnKeyE
__ZTIN14duckdb_parquet6format23EncryptionWithFooterKeyE
__ZTIN14duckdb_parquet6format7IntTypeE
__ZTIN14duckdb_parquet6format7MapTypeE
__ZTIN14duckdb_parquet6format8AesGcmV1E
__ZTIN14duckdb_parquet6format8BsonTypeE
__ZTIN14duckdb_parquet6format8DateTypeE
__ZTIN14duckdb_parquet6format8EnumTypeE
__ZTIN14duckdb_parquet6format8JsonTypeE
__ZTIN14duckdb_parquet6format8KeyValueE
__ZTIN14duckdb_parquet6format8ListTypeE
__ZTIN14duckdb_parquet6format8NullTypeE
__ZTIN14duckdb_parquet6format8RowGroupE
__ZTIN14duckdb_parquet6format8TimeTypeE
__ZTIN14duckdb_parquet6format8TimeUnitE
__ZTIN14duckdb_parquet6format8UUIDTypeE
__ZTIN6duckdb10CreateInfoE
__ZTIN6duckdb10LogicalGetE
__ZTIN6duckdb10ReadStreamE
__ZTIN6duckdb10SerializerE
__ZTIN6duckdb11IOExceptionE
__ZTIN6duckdb11MyTransportE
__ZTIN6duckdb11TransactionE
__ZTIN6duckdb11WriteStreamE
__ZTIN6duckdb12BlockManagerE
__ZTIN6duckdb12ColumnReaderE
__ZTIN6duckdb12ColumnWriterE
__ZTIN6duckdb12CopyFunctionE
__ZTIN6duckdb12DeserializerE
__ZTIN6duckdb12ExecutorTaskE
__ZTIN6duckdb12FtsExtensionE
__ZTIN6duckdb12FunctionDataE
__ZTIN6duckdb12VectorBufferE
__ZTIN6duckdb13BoundCastDataE
__ZTIN6duckdb13HTTPExceptionE
__ZTIN6duckdb13LogicalCreateE
__ZTIN6duckdb13LogicalDeleteE
__ZTIN6duckdb13LogicalInsertE
__ZTIN6duckdb13LogicalSimpleE
__ZTIN6duckdb13LogicalUpdateE
__ZTIN6duckdb13StreamWrapperE
__ZTIN6duckdb13TableFunctionE
__ZTIN6duckdb14CompressedFileE
__ZTIN6duckdb14DuckTableEntryE
__ZTIN6duckdb14FatalExceptionE
__ZTIN6duckdb14LocalSinkStateE
__ZTIN6duckdb14ScalarFunctionE
__ZTIN6duckdb14TableIOManagerE
__ZTIN6duckdb14ZStdFileSystemE
__ZTIN6duckdb15BinderExceptionE
__ZTIN6duckdb15BoundConstraintE
__ZTIN6duckdb15GlobalSinkStateE
__ZTIN6duckdb15LogicalOperatorE
__ZTIN6duckdb15ParserExceptionE
__ZTIN6duckdb15SyntaxExceptionE
__ZTIN6duckdb16CastColumnReaderE
__ZTIN6duckdb16CatalogExceptionE
__ZTIN6duckdb16EnumColumnWriterE
__ZTIN6duckdb16ListColumnReaderE
__ZTIN6duckdb16ListColumnWriterE
__ZTIN6duckdb16LocalSourceStateE
__ZTIN6duckdb16ObjectCacheEntryE
__ZTIN6duckdb16ParquetExtensionE
__ZTIN6duckdb16PhysicalOperatorE
__ZTIN6duckdb16UUIDColumnReaderE
__ZTIN6duckdb16UUIDColumnWriterE
__ZTIN6duckdb17AggregateFunctionE
__ZTIN6duckdb17BasePipelineEventE
__ZTIN6duckdb17BasicColumnWriterE
__ZTIN6duckdb17ColumnWriterStateE
__ZTIN6duckdb17GlobalSourceStateE
__ZTIN6duckdb17IndexCatalogEntryE
__ZTIN6duckdb17InternalExceptionE
__ZTIN6duckdb17LocalFunctionDataE
__ZTIN6duckdb17LogicalCopyToFileE
__ZTIN6duckdb17PreparedBatchDataE
__ZTIN6duckdb17StandardExceptionE
__ZTIN6duckdb17TableCatalogEntryE
__ZTIN6duckdb17TableFunctionDataE
__ZTIN6duckdb17TableFunctionInfoE
__ZTIN6duckdb17TableScanBindDataE
__ZTIN6duckdb17ZstdStreamWrapperE
__ZTIN6duckdb18BaseScalarFunctionE
__ZTIN6duckdb18CreateFunctionInfoE
__ZTIN6duckdb18FunctionLocalStateE
__ZTIN6duckdb18GlobalFunctionDataE
__ZTIN6duckdb18InterruptExceptionE
__ZTIN6duckdb18LogicalCreateIndexE
__ZTIN6duckdb18LogicalCreateTableE
__ZTIN6duckdb18SchemaCatalogEntryE
__ZTIN6duckdb18StringColumnReaderE
__ZTIN6duckdb18StringColumnWriterE
__ZTIN6duckdb18StructColumnReaderE
__ZTIN6duckdb18StructColumnWriterE
__ZTIN6duckdb18TransactionManagerE
__ZTIN6duckdb19BooleanColumnReaderE
__ZTIN6duckdb19BooleanColumnWriterE
__ZTIN6duckdb19ConversionExceptionE
__ZTIN6duckdb19DecimalColumnReaderINS_9hugeint_tELb0EEE
__ZTIN6duckdb19DecimalColumnReaderINS_9hugeint_tELb1EEE
__ZTIN6duckdb19DecimalColumnReaderIiLb0EEE
__ZTIN6duckdb19DecimalColumnReaderIiLb1EEE
__ZTIN6duckdb19DecimalColumnReaderIsLb0EEE
__ZTIN6duckdb19DecimalColumnReaderIsLb1EEE
__ZTIN6duckdb19DecimalColumnReaderIxLb0EEE
__ZTIN6duckdb19DecimalColumnReaderIxLb1EEE
__ZTIN6duckdb19EnumWriterPageStateE
__ZTIN6duckdb19OutOfRangeExceptionE
__ZTIN6duckdb19ParquetReadBindDataE
__ZTIN6duckdb19ThriftFileTransportE
__ZTIN6duckdb20BoundCheckConstraintE
__ZTIN6duckdb20CallbackColumnReaderINS_5Int96ENS_11timestamp_tEXadL_ZNS_26ImpalaTimestampToTimestampERKS1_EEEE
__ZTIN6duckdb20CallbackColumnReaderIiNS_6date_tEXadL_ZNS_16ParquetIntToDateERKiEEEE
__ZTIN6duckdb20CallbackColumnReaderIiNS_7dtime_tEXadL_ZNS_18ParquetIntToTimeMsERKiEEEE
__ZTIN6duckdb20CallbackColumnReaderIxNS_10dtime_tz_tEXadL_ZNS_18ParquetIntToTimeTZERKxEEEE
__ZTIN6duckdb20CallbackColumnReaderIxNS_11timestamp_tEXadL_ZNS_29ParquetTimestampMsToTimestampERKxEEEE
__ZTIN6duckdb20CallbackColumnReaderIxNS_11timestamp_tEXadL_ZNS_29ParquetTimestampNsToTimestampERKxEEEE
__ZTIN6duckdb20CallbackColumnReaderIxNS_11timestamp_tEXadL_ZNS_33ParquetTimestampMicrosToTimestampERKxEEEE
__ZTIN6duckdb20CallbackColumnReaderIxNS_7dtime_tEXadL_ZNS_16ParquetIntToTimeERKxEEEE
__ZTIN6duckdb20CallbackColumnReaderIxNS_7dtime_tEXadL_ZNS_18ParquetIntToTimeNsERKxEEEE
__ZTIN6duckdb20CompressedFileSystemE
__ZTIN6duckdb20InMemoryBlockManagerE
__ZTIN6duckdb20IntervalColumnReaderE
__ZTIN6duckdb20IntervalColumnWriterE
__ZTIN6duckdb20InvalidTypeExceptionE
__ZTIN6duckdb20ParquetWriteBindDataE
__ZTIN6duckdb20StandardColumnWriterINS_10dtime_tz_tExNS_21ParquetTimeTZOperatorEEE
__ZTIN6duckdb20StandardColumnWriterINS_9hugeint_tEdNS_22ParquetHugeintOperatorEEE
__ZTIN6duckdb20StandardColumnWriterIaiNS_19ParquetCastOperatorEEE
__ZTIN6duckdb20StandardColumnWriterIddNS_19ParquetCastOperatorEEE
__ZTIN6duckdb20StandardColumnWriterIffNS_19ParquetCastOperatorEEE
__ZTIN6duckdb20StandardColumnWriterIhiNS_19ParquetCastOperatorEEE
__ZTIN6duckdb20StandardColumnWriterIiiNS_19ParquetCastOperatorEEE
__ZTIN6duckdb20StandardColumnWriterIjjNS_19ParquetCastOperatorEEE
__ZTIN6duckdb20StandardColumnWriterIsiNS_19ParquetCastOperatorEEE
__ZTIN6duckdb20StandardColumnWriterItiNS_19ParquetCastOperatorEEE
__ZTIN6duckdb20StandardColumnWriterIxxNS_19ParquetCastOperatorEEE
__ZTIN6duckdb20StandardColumnWriterIxxNS_25ParquetTimestampSOperatorEEE
__ZTIN6duckdb20StandardColumnWriterIxxNS_26ParquetTimestampNSOperatorEEE
__ZTIN6duckdb20StandardColumnWriterIyyNS_19ParquetCastOperatorEEE
__ZTIN6duckdb20TransactionExceptionE
__ZTIN6duckdb21BoundUniqueConstraintE
__ZTIN6duckdb21ColumnWriterPageStateE
__ZTIN6duckdb21InvalidInputExceptionE
__ZTIN6duckdb21ListColumnWriterStateE
__ZTIN6duckdb21ParquetReadLocalStateE
__ZTIN6duckdb21ParquetSchemaFunctionE
__ZTIN6duckdb21ParquetWriteBatchDataE
__ZTIN6duckdb21RowNumberColumnReaderE
__ZTIN6duckdb21StringStatisticsStateE
__ZTIN6duckdb21StringWriterPageStateE
__ZTIN6duckdb21TemplatedColumnReaderINS_10dtime_tz_tENS_30CallbackParquetValueConversionIxS1_XadL_ZNS_18ParquetIntToTimeTZERKxEEEEEE
__ZTIN6duckdb21TemplatedColumnReaderINS_10interval_tENS_23IntervalValueConversionEEE
__ZTIN6duckdb21TemplatedColumnReaderINS_11timestamp_tENS_30CallbackParquetValueConversionINS_5Int96ES1_XadL_ZNS_26ImpalaTimestampToTimestampERKS3_EEEEEE
__ZTIN6duckdb21TemplatedColumnReaderINS_11timestamp_tENS_30CallbackParquetValueConversionIxS1_XadL_ZNS_29ParquetTimestampMsToTimestampERKxEEEEEE
__ZTIN6duckdb21TemplatedColumnReaderINS_11timestamp_tENS_30CallbackParquetValueConversionIxS1_XadL_ZNS_29ParquetTimestampNsToTimestampERKxEEEEEE
__ZTIN6duckdb21TemplatedColumnReaderINS_11timestamp_tENS_30CallbackParquetValueConversionIxS1_XadL_ZNS_33ParquetTimestampMicrosToTimestampERKxEEEEEE
__ZTIN6duckdb21TemplatedColumnReaderINS_6date_tENS_30CallbackParquetValueConversionIiS1_XadL_ZNS_16ParquetIntToDateERKiEEEEEE
__ZTIN6duckdb21TemplatedColumnReaderINS_7dtime_tENS_30CallbackParquetValueConversionIiS1_XadL_ZNS_18ParquetIntToTimeMsERKiEEEEEE
__ZTIN6duckdb21TemplatedColumnReaderINS_7dtime_tENS_30CallbackParquetValueConversionIxS1_XadL_ZNS_16ParquetIntToTimeERKxEEEEEE
__ZTIN6duckdb21TemplatedColumnReaderINS_7dtime_tENS_30CallbackParquetValueConversionIxS1_XadL_ZNS_18ParquetIntToTimeNsERKxEEEEEE
__ZTIN6duckdb21TemplatedColumnReaderINS_8string_tENS_28StringParquetValueConversionEEE
__ZTIN6duckdb21TemplatedColumnReaderINS_9hugeint_tENS_19UUIDValueConversionEEE
__ZTIN6duckdb21TemplatedColumnReaderINS_9hugeint_tENS_29DecimalParquetValueConversionIS1_Lb0EEEEE
__ZTIN6duckdb21TemplatedColumnReaderINS_9hugeint_tENS_29DecimalParquetValueConversionIS1_Lb1EEEEE
__ZTIN6duckdb21TemplatedColumnReaderIaNS_31TemplatedParquetValueConversionIiEEEE
__ZTIN6duckdb21TemplatedColumnReaderIbNS_29BooleanParquetValueConversionEEE
__ZTIN6duckdb21TemplatedColumnReaderIdNS_31TemplatedParquetValueConversionIdEEEE
__ZTIN6duckdb21TemplatedColumnReaderIfNS_31TemplatedParquetValueConversionIfEEEE
__ZTIN6duckdb21TemplatedColumnReaderIhNS_31TemplatedParquetValueConversionIjEEEE
__ZTIN6duckdb21TemplatedColumnReaderIiNS_29DecimalParquetValueConversionIiLb0EEEEE
__ZTIN6duckdb21TemplatedColumnReaderIiNS_29DecimalParquetValueConversionIiLb1EEEEE
__ZTIN6duckdb21TemplatedColumnReaderIiNS_31TemplatedParquetValueConversionIiEEEE
__ZTIN6duckdb21TemplatedColumnReaderIiNS_31TemplatedParquetValueConversionIxEEEE
__ZTIN6duckdb21TemplatedColumnReaderIjNS_31TemplatedParquetValueConversionIjEEEE
__ZTIN6duckdb21TemplatedColumnReaderIsNS_29DecimalParquetValueConversionIsLb0EEEEE
__ZTIN6duckdb21TemplatedColumnReaderIsNS_29DecimalParquetValueConversionIsLb1EEEEE
__ZTIN6duckdb21TemplatedColumnReaderIsNS_31TemplatedParquetValueConversionIiEEEE
__ZTIN6duckdb21TemplatedColumnReaderIsNS_31TemplatedParquetValueConversionIxEEEE
__ZTIN6duckdb21TemplatedColumnReaderItNS_31TemplatedParquetValueConversionIjEEEE
__ZTIN6duckdb21TemplatedColumnReaderIxNS_29DecimalParquetValueConversionIxLb0EEEEE
__ZTIN6duckdb21TemplatedColumnReaderIxNS_29DecimalParquetValueConversionIxLb1EEEEE
__ZTIN6duckdb21TemplatedColumnReaderIxNS_31TemplatedParquetValueConversionIiEEEE
__ZTIN6duckdb21TemplatedColumnReaderIxNS_31TemplatedParquetValueConversionIxEEEE
__ZTIN6duckdb21TemplatedColumnReaderIyNS_31TemplatedParquetValueConversionIyEEEE
__ZTIN6duckdb22BasicColumnWriterStateE
__ZTIN6duckdb22BooleanStatisticsStateE
__ZTIN6duckdb22BooleanWriterPageStateE
__ZTIN6duckdb22BoundNotNullConstraintE
__ZTIN6duckdb22ColumnWriterStatisticsE
__ZTIN6duckdb22FixedDecimalStatisticsE
__ZTIN6duckdb22NumericStatisticsStateINS_10dtime_tz_tExNS_19BaseParquetOperatorEEE
__ZTIN6duckdb22NumericStatisticsStateIaiNS_19BaseParquetOperatorEEE
__ZTIN6duckdb22NumericStatisticsStateIddNS_19BaseParquetOperatorEEE
__ZTIN6duckdb22NumericStatisticsStateIffNS_19BaseParquetOperatorEEE
__ZTIN6duckdb22NumericStatisticsStateIhiNS_19BaseParquetOperatorEEE
__ZTIN6duckdb22NumericStatisticsStateIiiNS_19BaseParquetOperatorEEE
__ZTIN6duckdb22NumericStatisticsStateIjjNS_19BaseParquetOperatorEEE
__ZTIN6duckdb22NumericStatisticsStateIsiNS_19BaseParquetOperatorEEE
__ZTIN6duckdb22NumericStatisticsStateItiNS_19BaseParquetOperatorEEE
__ZTIN6duckdb22NumericStatisticsStateIxxNS_19BaseParquetOperatorEEE
__ZTIN6duckdb22NumericStatisticsStateIyyNS_19BaseParquetOperatorEEE
__ZTIN6duckdb22ParquetReadGlobalStateE
__ZTIN6duckdb22ParquetWriteLocalStateE
__ZTIN6duckdb22SerializationExceptionE
__ZTIN6duckdb22VariableReturnBindDataE
__ZTIN6duckdb23LocalTableFunctionStateE
__ZTIN6duckdb23NotImplementedExceptionE
__ZTIN6duckdb23ParquetMetaDataBindDataE
__ZTIN6duckdb23ParquetMetaDataFunctionE
__ZTIN6duckdb23ParquetWriteGlobalStateE
__ZTIN6duckdb23StringColumnWriterStateE
__ZTIN6duckdb23StructColumnWriterStateE
__ZTIN6duckdb24FixedDecimalColumnWriterE
__ZTIN6duckdb24GlobalTableFunctionStateE
__ZTIN6duckdb24LogicalExtensionOperatorE
__ZTIN6duckdb24ParquetFileMetadataCacheE
__ZTIN6duckdb25BoundForeignKeyConstraintE
__ZTIN6duckdb25ParquetStringVectorBufferE
__ZTIN6duckdb27ParquetMetaDataOperatorDataE
__ZTIN6duckdb28SimpleNamedParameterFunctionE
__ZTIN6duckdb29ParameterNotResolvedExceptionE
__ZTIN6duckdb5EventE
__ZTIN6duckdb7CatalogE
__ZTIN6duckdb8DropInfoE
__ZTIN6duckdb8FunctionE
__ZTIN6duckdb8ZStdFileE
__ZTIN6duckdb9AlterInfoE
__ZTIN6duckdb9ExceptionE
__ZTIN6duckdb9ExtensionE
__ZTIN6duckdb9ParseInfoE
__ZTINSt3__210__back_refIcEE
__ZTINSt3__210__function6__baseIFvRKNS_12basic_stringIcNS_11char_traitsIcEENS_9allocatorIcEEEEbEEE
__ZTINSt3__210__function6__baseIFvRN6duckdb10unique_ptrINS2_16ParsedExpressionENS_14default_deleteIS4_EELb1EEEEEE
__ZTINSt3__210__function6__baseIFvRN6duckdb12CatalogEntryEEEE
__ZTINSt3__210__function6__baseIFvRN6duckdb16ParsedExpressionEEEE
__ZTINSt3__210__function6__baseIFvRN6duckdb18SchemaCatalogEntryEEEE
__ZTINSt3__210__function6__baseIFvRN6duckdb9DataChunkERNS2_15ExpressionStateERNS2_6VectorEEEE
__ZTINSt3__210__function6__baseIFvvEEE
__ZTINSt3__210__function6__funcIPFvRN6duckdb9DataChunkERNS2_15ExpressionStateERNS2_6VectorEENS_9allocatorISA_EES9_EE
__ZTINSt3__211__alternateIcEE
__ZTINSt3__211__end_stateIcEE
__ZTINSt3__211__lookaheadIcNS_12regex_traitsIcEEEE
__ZTINSt3__211__match_anyIcEE
__ZTINSt3__211regex_errorE
__ZTINSt3__212__match_charIcEE
__ZTINSt3__212bad_weak_ptrE
__ZTINSt3__212basic_stringIcNS_11char_traitsIcEENS_9allocatorIcEEEE
__ZTINSt3__212future_errorE
__ZTINSt3__213__empty_stateIcEE
__ZTINSt3__215__has_one_stateIcEE
__ZTINSt3__215__word_boundaryIcNS_12regex_traitsIcEEEE
__ZTINSt3__216__back_ref_icaseIcNS_12regex_traitsIcEEEE
__ZTINSt3__216__owns_one_stateIcEE
__ZTINSt3__217__assoc_sub_stateE
__ZTINSt3__217__owns_two_statesIcEE
__ZTINSt3__217__repeat_one_loopIcEE
__ZTINSt3__217bad_function_callE
__ZTINSt3__218__back_ref_collateIcNS_12regex_traitsIcEEEE
__ZTINSt3__218__match_char_icaseIcNS_12regex_traitsIcEEEE
__ZTINSt3__219__shared_weak_countE
__ZTINSt3__220__bracket_expressionIcNS_12regex_traitsIcEEEE
__ZTINSt3__220__l_anchor_multilineIcEE
__ZTINSt3__220__match_char_collateIcNS_12regex_traitsIcEEEE
__ZTINSt3__220__r_anchor_multilineIcEE
__ZTINSt3__220__shared_ptr_emplaceIN6duckdb11MyTransportENS_9allocatorIS2_EEEE
__ZTINSt3__220__shared_ptr_emplaceIN6duckdb12JoinRelationENS_9allocatorIS2_EEEE
__ZTINSt3__220__shared_ptr_emplaceIN6duckdb13HTTPExceptionENS_9allocatorIS2_EEEE
__ZTINSt3__220__shared_ptr_emplaceIN6duckdb13LimitRelationENS_9allocatorIS2_EEEE
__ZTINSt3__220__shared_ptr_emplaceIN6duckdb13OrderRelationENS_9allocatorIS2_EEEE
__ZTINSt3__220__shared_ptr_emplaceIN6duckdb13ParquetReaderENS_9allocatorIS2_EEEE
__ZTINSt3__220__shared_ptr_emplaceIN6duckdb13SelectionDataENS_9allocatorIS2_EEEE
__ZTINSt3__220__shared_ptr_emplaceIN6duckdb13SetOpRelationENS_9allocatorIS2_EEEE
__ZTINSt3__220__shared_ptr_emplaceIN6duckdb14FilterRelationENS_9allocatorIS2_EEEE
__ZTINSt3__220__shared_ptr_emplaceIN6duckdb16ResizeableBufferENS_9allocatorIS2_EEEE
__ZTINSt3__220__shared_ptr_emplaceIN6duckdb17AggregateRelationENS_9allocatorIS2_EEEE
__ZTINSt3__220__shared_ptr_emplaceIN6duckdb18ProjectionRelationENS_9allocatorIS2_EEEE
__ZTINSt3__220__shared_ptr_emplaceIN6duckdb19ThriftFileTransportENS_9allocatorIS2_EEEE
__ZTINSt3__220__shared_ptr_emplaceIN6duckdb20CrossProductRelationENS_9allocatorIS2_EEEE
__ZTINSt3__220__shared_ptr_emplaceIN6duckdb21TemplatedValidityDataIyEENS_9allocatorIS3_EEEE
__ZTINSt3__220__shared_ptr_emplaceIN6duckdb24ParquetFileMetadataCacheENS_9allocatorIS2_EEEE
__ZTINSt3__220__shared_ptr_emplaceIN6duckdb25ParquetStringVectorBufferENS_9allocatorIS2_EEEE
__ZTINSt3__220__shared_ptr_emplaceIN6duckdb9DataTableENS_9allocatorIS2_EEEE
__ZTINSt3__220__shared_ptr_emplaceIN6duckdb9ExceptionENS_9allocatorIS2_EEEE
__ZTINSt3__220__shared_ptr_pointerIPN13duckdb_apache6thrift8protocol9TProtocolENS_10shared_ptrIS4_E27__shared_ptr_default_deleteIS4_S4_EENS_9allocatorIS4_EEEE
__ZTINSt3__220__shared_ptr_pointerIPN6duckdb13ParquetReaderENS_14default_deleteIS2_EENS_9allocatorIS2_EEEE
__ZTINSt3__220__shared_ptr_pointerIPNS_13__empty_stateIcEENS_10shared_ptrIS2_E27__shared_ptr_default_deleteIS2_S2_EENS_9allocatorIS2_EEEE
__ZTINSt3__221__empty_non_own_stateIcEE
__ZTINSt3__223__match_any_but_newlineIcEE
__ZTINSt3__223enable_shared_from_thisIN6duckdb5EventEEE
__ZTINSt3__226__end_marked_subexpressionIcEE
__ZTINSt3__228__begin_marked_subexpressionIcEE
__ZTINSt3__26__loopIcEE
__ZTINSt3__26__nodeIcEE
__ZTIPFvRN6duckdb9DataChunkERNS_15ExpressionStateERNS_6VectorEE
__ZTIPKc
__ZTISt12domain_error
__ZTISt12length_error
__ZTISt12out_of_range
__ZTISt13runtime_error
__ZTISt16invalid_argument
__ZTISt20bad_array_new_length
__ZTISt9bad_alloc
__ZTISt9exception
__ZTIb
__ZTIc
__ZTId
__ZTIf
__ZTIh
__ZTIi
__ZTIj
__ZTIm
__ZTIv
__ZTIx
__ZTIy
__ZTSFvRN6duckdb9DataChunkERNS_15ExpressionStateERNS_6VectorEE
__ZTSN10emscripten11memory_viewIhEE
__ZTSN10emscripten3valE
__ZTSN13duckdb_apache6thrift10TExceptionE
__ZTSN13duckdb_apache6thrift5TBaseE
__ZTSN13duckdb_apache6thrift8protocol16TProtocolFactoryE
__ZTSN13duckdb_apache6thrift8protocol16TVirtualProtocolINS1_17TCompactProtocolTIN6duckdb11MyTransportEEENS1_17TProtocolDefaultsEEE
__ZTSN13duckdb_apache6thrift8protocol16TVirtualProtocolINS1_17TCompactProtocolTIN6duckdb19ThriftFileTransportEEENS1_17TProtocolDefaultsEEE
__ZTSN13duckdb_apache6thrift8protocol16TVirtualProtocolINS1_17TCompactProtocolTINS0_9transport10TTransportEEENS1_17TProtocolDefaultsEEE
__ZTSN13duckdb_apache6thrift8protocol17TCompactProtocolTIN6duckdb11MyTransportEEE
__ZTSN13duckdb_apache6thrift8protocol17TCompactProtocolTIN6duckdb19ThriftFileTransportEEE
__ZTSN13duckdb_apache6thrift8protocol17TCompactProtocolTINS0_9transport10TTransportEEE
__ZTSN13duckdb_apache6thrift8protocol17TProtocolDefaultsE
__ZTSN13duckdb_apache6thrift8protocol18TProtocolExceptionE
__ZTSN13duckdb_apache6thrift8protocol24TCompactProtocolFactoryTIN6duckdb11MyTransportEEE
__ZTSN13duckdb_apache6thrift8protocol9TProtocolE
__ZTSN13duckdb_apache6thrift9transport10TTransportE
__ZTSN13duckdb_apache6thrift9transport11TBufferBaseE
__ZTSN13duckdb_apache6thrift9transport13TMemoryBufferE
__ZTSN13duckdb_apache6thrift9transport17TVirtualTransportIN6duckdb19ThriftFileTransportENS1_18TTransportDefaultsEEE
__ZTSN13duckdb_apache6thrift9transport17TVirtualTransportINS1_11TBufferBaseENS1_18TTransportDefaultsEEE
__ZTSN13duckdb_apache6thrift9transport17TVirtualTransportINS1_13TMemoryBufferENS1_11TBufferBaseEEE
__ZTSN13duckdb_apache6thrift9transport18TTransportDefaultsE
__ZTSN13duckdb_apache6thrift9transport19TTransportExceptionE
__ZTSN13duckdb_snappy15ByteArraySourceE
__ZTSN13duckdb_snappy22UncheckedByteArraySinkE
__ZTSN13duckdb_snappy4SinkE
__ZTSN13duckdb_snappy6SourceE
__ZTSN14duckdb_parquet6format10PageHeaderE
__ZTSN14duckdb_parquet6format10StatisticsE
__ZTSN14duckdb_parquet6format10StringTypeE
__ZTSN14duckdb_parquet6format11AesGcmCtrV1E
__ZTSN14duckdb_parquet6format11ColumnChunkE
__ZTSN14duckdb_parquet6format11ColumnIndexE
__ZTSN14duckdb_parquet6format11ColumnOrderE
__ZTSN14duckdb_parquet6format11DecimalTypeE
__ZTSN14duckdb_parquet6format11LogicalTypeE
__ZTSN14duckdb_parquet6format11NanoSecondsE
__ZTSN14duckdb_parquet6format11OffsetIndexE
__ZTSN14duckdb_parquet6format12FileMetaDataE
__ZTSN14duckdb_parquet6format12MicroSecondsE
__ZTSN14duckdb_parquet6format12MilliSecondsE
__ZTSN14duckdb_parquet6format12PageLocationE
__ZTSN14duckdb_parquet6format13SchemaElementE
__ZTSN14duckdb_parquet6format13SortingColumnE
__ZTSN14duckdb_parquet6format13TimestampTypeE
__ZTSN14duckdb_parquet6format14ColumnMetaDataE
__ZTSN14duckdb_parquet6format14DataPageHeaderE
__ZTSN14duckdb_parquet6format15IndexPageHeaderE
__ZTSN14duckdb_parquet6format16DataPageHeaderV2E
__ZTSN14duckdb_parquet6format16TypeDefinedOrderE
__ZTSN14duckdb_parquet6format17PageEncodingStatsE
__ZTSN14duckdb_parquet6format18FileCryptoMetaDataE
__ZTSN14duckdb_parquet6format19EncryptionAlgorithmE
__ZTSN14duckdb_parquet6format20ColumnCryptoMetaDataE
__ZTSN14duckdb_parquet6format20DictionaryPageHeaderE
__ZTSN14duckdb_parquet6format23EncryptionWithColumnKeyE
__ZTSN14duckdb_parquet6format23EncryptionWithFooterKeyE
__ZTSN14duckdb_parquet6format7IntTypeE
__ZTSN14duckdb_parquet6format7MapTypeE
__ZTSN14duckdb_parquet6format8AesGcmV1E
__ZTSN14duckdb_parquet6format8BsonTypeE
__ZTSN14duckdb_parquet6format8DateTypeE
__ZTSN14duckdb_parquet6format8EnumTypeE
__ZTSN14duckdb_parquet6format8JsonTypeE
__ZTSN14duckdb_parquet6format8KeyValueE
__ZTSN14duckdb_parquet6format8ListTypeE
__ZTSN14duckdb_parquet6format8NullTypeE
__ZTSN14duckdb_parquet6format8RowGroupE
__ZTSN14duckdb_parquet6format8TimeTypeE
__ZTSN14duckdb_parquet6format8TimeUnitE
__ZTSN14duckdb_parquet6format8UUIDTypeE
__ZTSN6duckdb10ReadStreamE
__ZTSN6duckdb10SerializerE
__ZTSN6duckdb11IOExceptionE
__ZTSN6duckdb11MyTransportE
__ZTSN6duckdb11WriteStreamE
__ZTSN6duckdb12ColumnReaderE
__ZTSN6duckdb12ColumnWriterE
__ZTSN6duckdb12CopyFunctionE
__ZTSN6duckdb12DeserializerE
__ZTSN6duckdb12FtsExtensionE
__ZTSN6duckdb12VectorBufferE
__ZTSN6duckdb13HTTPExceptionE
__ZTSN6duckdb13TableFunctionE
__ZTSN6duckdb14FatalExceptionE
__ZTSN6duckdb14LocalSinkStateE
__ZTSN6duckdb14ScalarFunctionE
__ZTSN6duckdb14TableIOManagerE
__ZTSN6duckdb14ZStdFileSystemE
__ZTSN6duckdb15BinderExceptionE
__ZTSN6duckdb15BoundConstraintE
__ZTSN6duckdb15GlobalSinkStateE
__ZTSN6duckdb15ParserExceptionE
__ZTSN6duckdb15SyntaxExceptionE
__ZTSN6duckdb16CastColumnReaderE
__ZTSN6duckdb16CatalogExceptionE
__ZTSN6duckdb16EnumColumnWriterE
__ZTSN6duckdb16ListColumnReaderE
__ZTSN6duckdb16ListColumnWriterE
__ZTSN6duckdb16LocalSourceStateE
__ZTSN6duckdb16ObjectCacheEntryE
__ZTSN6duckdb16ParquetExtensionE
__ZTSN6duckdb16UUIDColumnReaderE
__ZTSN6duckdb16UUIDColumnWriterE
__ZTSN6duckdb17AggregateFunctionE
__ZTSN6duckdb17BasePipelineEventE
__ZTSN6duckdb17BasicColumnWriterE
__ZTSN6duckdb17ColumnWriterStateE
__ZTSN6duckdb17GlobalSourceStateE
__ZTSN6duckdb17InternalExceptionE
__ZTSN6duckdb17LocalFunctionDataE
__ZTSN6duckdb17PreparedBatchDataE
__ZTSN6duckdb17StandardExceptionE
__ZTSN6duckdb17TableScanBindDataE
__ZTSN6duckdb17ZstdStreamWrapperE
__ZTSN6duckdb18CreateFunctionInfoE
__ZTSN6duckdb18GlobalFunctionDataE
__ZTSN6duckdb18InterruptExceptionE
__ZTSN6duckdb18StringColumnReaderE
__ZTSN6duckdb18StringColumnWriterE
__ZTSN6duckdb18StructColumnReaderE
__ZTSN6duckdb18StructColumnWriterE
__ZTSN6duckdb19BooleanColumnReaderE
__ZTSN6duckdb19BooleanColumnWriterE
__ZTSN6duckdb19ConversionExceptionE
__ZTSN6duckdb19DecimalColumnReaderINS_9hugeint_tELb0EEE
__ZTSN6duckdb19DecimalColumnReaderINS_9hugeint_tELb1EEE
__ZTSN6duckdb19DecimalColumnReaderIiLb0EEE
__ZTSN6duckdb19DecimalColumnReaderIiLb1EEE
__ZTSN6duckdb19DecimalColumnReaderIsLb0EEE
__ZTSN6duckdb19DecimalColumnReaderIsLb1EEE
__ZTSN6duckdb19DecimalColumnReaderIxLb0EEE
__ZTSN6duckdb19DecimalColumnReaderIxLb1EEE
__ZTSN6duckdb19EnumWriterPageStateE
__ZTSN6duckdb19OutOfRangeExceptionE
__ZTSN6duckdb19ParquetReadBindDataE
__ZTSN6duckdb19ThriftFileTransportE
__ZTSN6duckdb20BoundCheckConstraintE
__ZTSN6duckdb20CallbackColumnReaderINS_5Int96ENS_11timestamp_tEXadL_ZNS_26ImpalaTimestampToTimestampERKS1_EEEE
__ZTSN6duckdb20CallbackColumnReaderIiNS_6date_tEXadL_ZNS_16ParquetIntToDateERKiEEEE
__ZTSN6duckdb20CallbackColumnReaderIiNS_7dtime_tEXadL_ZNS_18ParquetIntToTimeMsERKiEEEE
__ZTSN6duckdb20CallbackColumnReaderIxNS_10dtime_tz_tEXadL_ZNS_18ParquetIntToTimeTZERKxEEEE
__ZTSN6duckdb20CallbackColumnReaderIxNS_11timestamp_tEXadL_ZNS_29ParquetTimestampMsToTimestampERKxEEEE
__ZTSN6duckdb20CallbackColumnReaderIxNS_11timestamp_tEXadL_ZNS_29ParquetTimestampNsToTimestampERKxEEEE
__ZTSN6duckdb20CallbackColumnReaderIxNS_11timestamp_tEXadL_ZNS_33ParquetTimestampMicrosToTimestampERKxEEEE
__ZTSN6duckdb20CallbackColumnReaderIxNS_7dtime_tEXadL_ZNS_16ParquetIntToTimeERKxEEEE
__ZTSN6duckdb20CallbackColumnReaderIxNS_7dtime_tEXadL_ZNS_18ParquetIntToTimeNsERKxEEEE
__ZTSN6duckdb20InMemoryBlockManagerE
__ZTSN6duckdb20IntervalColumnReaderE
__ZTSN6duckdb20IntervalColumnWriterE
__ZTSN6duckdb20InvalidTypeExceptionE
__ZTSN6duckdb20ParquetWriteBindDataE
__ZTSN6duckdb20StandardColumnWriterINS_10dtime_tz_tExNS_21ParquetTimeTZOperatorEEE
__ZTSN6duckdb20StandardColumnWriterINS_9hugeint_tEdNS_22ParquetHugeintOperatorEEE
__ZTSN6duckdb20StandardColumnWriterIaiNS_19ParquetCastOperatorEEE
__ZTSN6duckdb20StandardColumnWriterIddNS_19ParquetCastOperatorEEE
__ZTSN6duckdb20StandardColumnWriterIffNS_19ParquetCastOperatorEEE
__ZTSN6duckdb20StandardColumnWriterIhiNS_19ParquetCastOperatorEEE
__ZTSN6duckdb20StandardColumnWriterIiiNS_19ParquetCastOperatorEEE
__ZTSN6duckdb20StandardColumnWriterIjjNS_19ParquetCastOperatorEEE
__ZTSN6duckdb20StandardColumnWriterIsiNS_19ParquetCastOperatorEEE
__ZTSN6duckdb20StandardColumnWriterItiNS_19ParquetCastOperatorEEE
__ZTSN6duckdb20StandardColumnWriterIxxNS_19ParquetCastOperatorEEE
__ZTSN6duckdb20StandardColumnWriterIxxNS_25ParquetTimestampSOperatorEEE
__ZTSN6duckdb20StandardColumnWriterIxxNS_26ParquetTimestampNSOperatorEEE
__ZTSN6duckdb20StandardColumnWriterIyyNS_19ParquetCastOperatorEEE
__ZTSN6duckdb20TransactionExceptionE
__ZTSN6duckdb21BoundUniqueConstraintE
__ZTSN6duckdb21ColumnWriterPageStateE
__ZTSN6duckdb21InvalidInputExceptionE
__ZTSN6duckdb21ListColumnWriterStateE
__ZTSN6duckdb21ParquetReadLocalStateE
__ZTSN6duckdb21ParquetSchemaFunctionE
__ZTSN6duckdb21ParquetWriteBatchDataE
__ZTSN6duckdb21RowNumberColumnReaderE
__ZTSN6duckdb21StringStatisticsStateE
__ZTSN6duckdb21StringWriterPageStateE
__ZTSN6duckdb21TemplatedColumnReaderINS_10dtime_tz_tENS_30CallbackParquetValueConversionIxS1_XadL_ZNS_18ParquetIntToTimeTZERKxEEEEEE
__ZTSN6duckdb21TemplatedColumnReaderINS_10interval_tENS_23IntervalValueConversionEEE
__ZTSN6duckdb21TemplatedColumnReaderINS_11timestamp_tENS_30CallbackParquetValueConversionINS_5Int96ES1_XadL_ZNS_26ImpalaTimestampToTimestampERKS3_EEEEEE
__ZTSN6duckdb21TemplatedColumnReaderINS_11timestamp_tENS_30CallbackParquetValueConversionIxS1_XadL_ZNS_29ParquetTimestampMsToTimestampERKxEEEEEE
__ZTSN6duckdb21TemplatedColumnReaderINS_11timestamp_tENS_30CallbackParquetValueConversionIxS1_XadL_ZNS_29ParquetTimestampNsToTimestampERKxEEEEEE
__ZTSN6duckdb21TemplatedColumnReaderINS_11timestamp_tENS_30CallbackParquetValueConversionIxS1_XadL_ZNS_33ParquetTimestampMicrosToTimestampERKxEEEEEE
__ZTSN6duckdb21TemplatedColumnReaderINS_6date_tENS_30CallbackParquetValueConversionIiS1_XadL_ZNS_16ParquetIntToDateERKiEEEEEE
__ZTSN6duckdb21TemplatedColumnReaderINS_7dtime_tENS_30CallbackParquetValueConversionIiS1_XadL_ZNS_18ParquetIntToTimeMsERKiEEEEEE
__ZTSN6duckdb21TemplatedColumnReaderINS_7dtime_tENS_30CallbackParquetValueConversionIxS1_XadL_ZNS_16ParquetIntToTimeERKxEEEEEE
__ZTSN6duckdb21TemplatedColumnReaderINS_7dtime_tENS_30CallbackParquetValueConversionIxS1_XadL_ZNS_18ParquetIntToTimeNsERKxEEEEEE
__ZTSN6duckdb21TemplatedColumnReaderINS_8string_tENS_28StringParquetValueConversionEEE
__ZTSN6duckdb21TemplatedColumnReaderINS_9hugeint_tENS_19UUIDValueConversionEEE
__ZTSN6duckdb21TemplatedColumnReaderINS_9hugeint_tENS_29DecimalParquetValueConversionIS1_Lb0EEEEE
__ZTSN6duckdb21TemplatedColumnReaderINS_9hugeint_tENS_29DecimalParquetValueConversionIS1_Lb1EEEEE
__ZTSN6duckdb21TemplatedColumnReaderIaNS_31TemplatedParquetValueConversionIiEEEE
__ZTSN6duckdb21TemplatedColumnReaderIbNS_29BooleanParquetValueConversionEEE
__ZTSN6duckdb21TemplatedColumnReaderIdNS_31TemplatedParquetValueConversionIdEEEE
__ZTSN6duckdb21TemplatedColumnReaderIfNS_31TemplatedParquetValueConversionIfEEEE
__ZTSN6duckdb21TemplatedColumnReaderIhNS_31TemplatedParquetValueConversionIjEEEE
__ZTSN6duckdb21TemplatedColumnReaderIiNS_29DecimalParquetValueConversionIiLb0EEEEE
__ZTSN6duckdb21TemplatedColumnReaderIiNS_29DecimalParquetValueConversionIiLb1EEEEE
__ZTSN6duckdb21TemplatedColumnReaderIiNS_31TemplatedParquetValueConversionIiEEEE
__ZTSN6duckdb21TemplatedColumnReaderIiNS_31TemplatedParquetValueConversionIxEEEE
__ZTSN6duckdb21TemplatedColumnReaderIjNS_31TemplatedParquetValueConversionIjEEEE
__ZTSN6duckdb21TemplatedColumnReaderIsNS_29DecimalParquetValueConversionIsLb0EEEEE
__ZTSN6duckdb21TemplatedColumnReaderIsNS_29DecimalParquetValueConversionIsLb1EEEEE
__ZTSN6duckdb21TemplatedColumnReaderIsNS_31TemplatedParquetValueConversionIiEEEE
__ZTSN6duckdb21TemplatedColumnReaderIsNS_31TemplatedParquetValueConversionIxEEEE
__ZTSN6duckdb21TemplatedColumnReaderItNS_31TemplatedParquetValueConversionIjEEEE
__ZTSN6duckdb21TemplatedColumnReaderIxNS_29DecimalParquetValueConversionIxLb0EEEEE
__ZTSN6duckdb21TemplatedColumnReaderIxNS_29DecimalParquetValueConversionIxLb1EEEEE
__ZTSN6duckdb21TemplatedColumnReaderIxNS_31TemplatedParquetValueConversionIiEEEE
__ZTSN6duckdb21TemplatedColumnReaderIxNS_31TemplatedParquetValueConversionIxEEEE
__ZTSN6duckdb21TemplatedColumnReaderIyNS_31TemplatedParquetValueConversionIyEEEE
__ZTSN6duckdb22BasicColumnWriterStateE
__ZTSN6duckdb22BooleanStatisticsStateE
__ZTSN6duckdb22BooleanWriterPageStateE
__ZTSN6duckdb22BoundNotNullConstraintE
__ZTSN6duckdb22ColumnWriterStatisticsE
__ZTSN6duckdb22FixedDecimalStatisticsE
__ZTSN6duckdb22NumericStatisticsStateINS_10dtime_tz_tExNS_19BaseParquetOperatorEEE
__ZTSN6duckdb22NumericStatisticsStateIaiNS_19BaseParquetOperatorEEE
__ZTSN6duckdb22NumericStatisticsStateIddNS_19BaseParquetOperatorEEE
__ZTSN6duckdb22NumericStatisticsStateIffNS_19BaseParquetOperatorEEE
__ZTSN6duckdb22NumericStatisticsStateIhiNS_19BaseParquetOperatorEEE
__ZTSN6duckdb22NumericStatisticsStateIiiNS_19BaseParquetOperatorEEE
__ZTSN6duckdb22NumericStatisticsStateIjjNS_19BaseParquetOperatorEEE
__ZTSN6duckdb22NumericStatisticsStateIsiNS_19BaseParquetOperatorEEE
__ZTSN6duckdb22NumericStatisticsStateItiNS_19BaseParquetOperatorEEE
__ZTSN6duckdb22NumericStatisticsStateIxxNS_19BaseParquetOperatorEEE
__ZTSN6duckdb22NumericStatisticsStateIyyNS_19BaseParquetOperatorEEE
__ZTSN6duckdb22ParquetReadGlobalStateE
__ZTSN6duckdb22ParquetWriteLocalStateE
__ZTSN6duckdb22SerializationExceptionE
__ZTSN6duckdb22VariableReturnBindDataE
__ZTSN6duckdb23NotImplementedExceptionE
__ZTSN6duckdb23ParquetMetaDataBindDataE
__ZTSN6duckdb23ParquetMetaDataFunctionE
__ZTSN6duckdb23ParquetWriteGlobalStateE
__ZTSN6duckdb23StringColumnWriterStateE
__ZTSN6duckdb23StructColumnWriterStateE
__ZTSN6duckdb24FixedDecimalColumnWriterE
__ZTSN6duckdb24ParquetFileMetadataCacheE
__ZTSN6duckdb25BoundForeignKeyConstraintE
__ZTSN6duckdb25ParquetStringVectorBufferE
__ZTSN6duckdb27ParquetMetaDataOperatorDataE
__ZTSN6duckdb29ParameterNotResolvedExceptionE
__ZTSN6duckdb5EventE
__ZTSN6duckdb8ZStdFileE
__ZTSNSt3__210__back_refIcEE
__ZTSNSt3__210__function6__baseIFvRKNS_12basic_stringIcNS_11char_traitsIcEENS_9allocatorIcEEEEbEEE
__ZTSNSt3__210__function6__baseIFvRN6duckdb10unique_ptrINS2_16ParsedExpressionENS_14default_deleteIS4_EELb1EEEEEE
__ZTSNSt3__210__function6__baseIFvRN6duckdb12CatalogEntryEEEE
__ZTSNSt3__210__function6__baseIFvRN6duckdb16ParsedExpressionEEEE
__ZTSNSt3__210__function6__baseIFvRN6duckdb18SchemaCatalogEntryEEEE
__ZTSNSt3__210__function6__baseIFvRN6duckdb9DataChunkERNS2_15ExpressionStateERNS2_6VectorEEEE
__ZTSNSt3__210__function6__baseIFvvEEE
__ZTSNSt3__210__function6__funcIPFvRN6duckdb9DataChunkERNS2_15ExpressionStateERNS2_6VectorEENS_9allocatorISA_EES9_EE
__ZTSNSt3__210shared_ptrIN13duckdb_apache6thrift8protocol9TProtocolEE27__shared_ptr_default_deleteIS4_S4_EE
__ZTSNSt3__210shared_ptrINS_13__empty_stateIcEEE27__shared_ptr_default_deleteIS2_S2_EE
__ZTSNSt3__211__alternateIcEE
__ZTSNSt3__211__end_stateIcEE
__ZTSNSt3__211__lookaheadIcNS_12regex_traitsIcEEEE
__ZTSNSt3__211__match_anyIcEE
__ZTSNSt3__212__match_charIcEE
__ZTSNSt3__212basic_stringIcNS_11char_traitsIcEENS_9allocatorIcEEEE
__ZTSNSt3__213__empty_stateIcEE
__ZTSNSt3__214default_deleteIN6duckdb13ParquetReaderEEE
__ZTSNSt3__215__has_one_stateIcEE
__ZTSNSt3__215__word_boundaryIcNS_12regex_traitsIcEEEE
__ZTSNSt3__216__back_ref_icaseIcNS_12regex_traitsIcEEEE
__ZTSNSt3__216__owns_one_stateIcEE
__ZTSNSt3__217__owns_two_statesIcEE
__ZTSNSt3__217__repeat_one_loopIcEE
__ZTSNSt3__218__back_ref_collateIcNS_12regex_traitsIcEEEE
__ZTSNSt3__218__match_char_icaseIcNS_12regex_traitsIcEEEE
__ZTSNSt3__220__bracket_expressionIcNS_12regex_traitsIcEEEE
__ZTSNSt3__220__l_anchor_multilineIcEE
__ZTSNSt3__220__match_char_collateIcNS_12regex_traitsIcEEEE
__ZTSNSt3__220__r_anchor_multilineIcEE
__ZTSNSt3__220__shared_ptr_emplaceIN6duckdb11MyTransportENS_9allocatorIS2_EEEE
__ZTSNSt3__220__shared_ptr_emplaceIN6duckdb12JoinRelationENS_9allocatorIS2_EEEE
__ZTSNSt3__220__shared_ptr_emplaceIN6duckdb13HTTPExceptionENS_9allocatorIS2_EEEE
__ZTSNSt3__220__shared_ptr_emplaceIN6duckdb13LimitRelationENS_9allocatorIS2_EEEE
__ZTSNSt3__220__shared_ptr_emplaceIN6duckdb13OrderRelationENS_9allocatorIS2_EEEE
__ZTSNSt3__220__shared_ptr_emplaceIN6duckdb13ParquetReaderENS_9allocatorIS2_EEEE
__ZTSNSt3__220__shared_ptr_emplaceIN6duckdb13SelectionDataENS_9allocatorIS2_EEEE
__ZTSNSt3__220__shared_ptr_emplaceIN6duckdb13SetOpRelationENS_9allocatorIS2_EEEE
__ZTSNSt3__220__shared_ptr_emplaceIN6duckdb14FilterRelationENS_9allocatorIS2_EEEE
__ZTSNSt3__220__shared_ptr_emplaceIN6duckdb16ResizeableBufferENS_9allocatorIS2_EEEE
__ZTSNSt3__220__shared_ptr_emplaceIN6duckdb17AggregateRelationENS_9allocatorIS2_EEEE
__ZTSNSt3__220__shared_ptr_emplaceIN6duckdb18ProjectionRelationENS_9allocatorIS2_EEEE
__ZTSNSt3__220__shared_ptr_emplaceIN6duckdb19ThriftFileTransportENS_9allocatorIS2_EEEE
__ZTSNSt3__220__shared_ptr_emplaceIN6duckdb20CrossProductRelationENS_9allocatorIS2_EEEE
__ZTSNSt3__220__shared_ptr_emplaceIN6duckdb21TemplatedValidityDataIyEENS_9allocatorIS3_EEEE
__ZTSNSt3__220__shared_ptr_emplaceIN6duckdb24ParquetFileMetadataCacheENS_9allocatorIS2_EEEE
__ZTSNSt3__220__shared_ptr_emplaceIN6duckdb25ParquetStringVectorBufferENS_9allocatorIS2_EEEE
__ZTSNSt3__220__shared_ptr_emplaceIN6duckdb9DataTableENS_9allocatorIS2_EEEE
__ZTSNSt3__220__shared_ptr_emplaceIN6duckdb9ExceptionENS_9allocatorIS2_EEEE
__ZTSNSt3__220__shared_ptr_pointerIPN13duckdb_apache6thrift8protocol9TProtocolENS_10shared_ptrIS4_E27__shared_ptr_default_deleteIS4_S4_EENS_9allocatorIS4_EEEE
__ZTSNSt3__220__shared_ptr_pointerIPN6duckdb13ParquetReaderENS_14default_deleteIS2_EENS_9allocatorIS2_EEEE
__ZTSNSt3__220__shared_ptr_pointerIPNS_13__empty_stateIcEENS_10shared_ptrIS2_E27__shared_ptr_default_deleteIS2_S2_EENS_9allocatorIS2_EEEE
__ZTSNSt3__221__empty_non_own_stateIcEE
__ZTSNSt3__223__match_any_but_newlineIcEE
__ZTSNSt3__223enable_shared_from_thisIN6duckdb5EventEEE
__ZTSNSt3__226__end_marked_subexpressionIcEE
__ZTSNSt3__228__begin_marked_subexpressionIcEE
__ZTSNSt3__26__loopIcEE
__ZTSNSt3__26__nodeIcEE
__ZTSPFvRN6duckdb9DataChunkERNS_15ExpressionStateERNS_6VectorEE
__ZTTN14duckdb_parquet6format10PageHeaderE
__ZTTN14duckdb_parquet6format11ColumnChunkE
__ZTTN14duckdb_parquet6format11ColumnIndexE
__ZTTN14duckdb_parquet6format12FileMetaDataE
__ZTTN14duckdb_parquet6format14ColumnMetaDataE
__ZTTN14duckdb_parquet6format18FileCryptoMetaDataE
__ZTTNSt3__214basic_ifstreamIcNS_11char_traitsIcEEEE
__ZTTNSt3__214basic_ofstreamIcNS_11char_traitsIcEEEE
__ZTTNSt3__218basic_stringstreamIcNS_11char_traitsIcEENS_9allocatorIcEEEE
__ZTTNSt3__219basic_istringstreamIcNS_11char_traitsIcEENS_9allocatorIcEEEE
__ZTTNSt3__219basic_ostringstreamIcNS_11char_traitsIcEENS_9allocatorIcEEEE
__ZTVN10__cxxabiv117__class_type_infoE
__ZTVN10__cxxabiv119__pointer_type_infoE
__ZTVN10__cxxabiv120__function_type_infoE
__ZTVN10__cxxabiv120__si_class_type_infoE
__ZTVN10__cxxabiv121__vmi_class_type_infoE
__ZTVN13duckdb_apache6thrift10TExceptionE
__ZTVN13duckdb_apache6thrift8protocol16TVirtualProtocolINS1_17TCompactProtocolTIN6duckdb11MyTransportEEENS1_17TProtocolDefaultsEEE
__ZTVN13duckdb_apache6thrift8protocol16TVirtualProtocolINS1_17TCompactProtocolTIN6duckdb19ThriftFileTransportEEENS1_17TProtocolDefaultsEEE
__ZTVN13duckdb_apache6thrift8protocol16TVirtualProtocolINS1_17TCompactProtocolTINS0_9transport10TTransportEEENS1_17TProtocolDefaultsEEE
__ZTVN13duckdb_apache6thrift8protocol17TCompactProtocolTIN6duckdb11MyTransportEEE
__ZTVN13duckdb_apache6thrift8protocol17TCompactProtocolTIN6duckdb19ThriftFileTransportEEE
__ZTVN13duckdb_apache6thrift8protocol17TCompactProtocolTINS0_9transport10TTransportEEE
__ZTVN13duckdb_apache6thrift8protocol17TProtocolDefaultsE
__ZTVN13duckdb_apache6thrift8protocol18TProtocolExceptionE
__ZTVN13duckdb_apache6thrift8protocol24TCompactProtocolFactoryTIN6duckdb11MyTransportEEE
__ZTVN13duckdb_apache6thrift8protocol9TProtocolE
__ZTVN13duckdb_apache6thrift9transport13TMemoryBufferE
__ZTVN13duckdb_apache6thrift9transport19TTransportExceptionE
__ZTVN13duckdb_snappy15ByteArraySourceE
__ZTVN13duckdb_snappy22UncheckedByteArraySinkE
__ZTVN14duckdb_parquet6format10PageHeaderE
__ZTVN14duckdb_parquet6format10StatisticsE
__ZTVN14duckdb_parquet6format10StringTypeE
__ZTVN14duckdb_parquet6format11AesGcmCtrV1E
__ZTVN14duckdb_parquet6format11ColumnChunkE
__ZTVN14duckdb_parquet6format11ColumnIndexE
__ZTVN14duckdb_parquet6format11ColumnOrderE
__ZTVN14duckdb_parquet6format11DecimalTypeE
__ZTVN14duckdb_parquet6format11LogicalTypeE
__ZTVN14duckdb_parquet6format11NanoSecondsE
__ZTVN14duckdb_parquet6format11OffsetIndexE
__ZTVN14duckdb_parquet6format12FileMetaDataE
__ZTVN14duckdb_parquet6format12MicroSecondsE
__ZTVN14duckdb_parquet6format12MilliSecondsE
__ZTVN14duckdb_parquet6format12PageLocationE
__ZTVN14duckdb_parquet6format13SchemaElementE
__ZTVN14duckdb_parquet6format13SortingColumnE
__ZTVN14duckdb_parquet6format13TimestampTypeE
__ZTVN14duckdb_parquet6format14ColumnMetaDataE
__ZTVN14duckdb_parquet6format14DataPageHeaderE
__ZTVN14duckdb_parquet6format15IndexPageHeaderE
__ZTVN14duckdb_parquet6format16DataPageHeaderV2E
__ZTVN14duckdb_parquet6format16TypeDefinedOrderE
__ZTVN14duckdb_parquet6format17PageEncodingStatsE
__ZTVN14duckdb_parquet6format18FileCryptoMetaDataE
__ZTVN14duckdb_parquet6format19EncryptionAlgorithmE
__ZTVN14duckdb_parquet6format20ColumnCryptoMetaDataE
__ZTVN14duckdb_parquet6format20DictionaryPageHeaderE
__ZTVN14duckdb_parquet6format23EncryptionWithColumnKeyE
__ZTVN14duckdb_parquet6format23EncryptionWithFooterKeyE
__ZTVN14duckdb_parquet6format7IntTypeE
__ZTVN14duckdb_parquet6format7MapTypeE
__ZTVN14duckdb_parquet6format8AesGcmV1E
__ZTVN14duckdb_parquet6format8BsonTypeE
__ZTVN14duckdb_parquet6format8DateTypeE
__ZTVN14duckdb_parquet6format8EnumTypeE
__ZTVN14duckdb_parquet6format8JsonTypeE
__ZTVN14duckdb_parquet6format8KeyValueE
__ZTVN14duckdb_parquet6format8ListTypeE
__ZTVN14duckdb_parquet6format8NullTypeE
__ZTVN14duckdb_parquet6format8RowGroupE
__ZTVN14duckdb_parquet6format8TimeTypeE
__ZTVN14duckdb_parquet6format8TimeUnitE
__ZTVN14duckdb_parquet6format8UUIDTypeE
__ZTVN6duckdb10CreateInfoE
__ZTVN6duckdb10DetachInfoE
__ZTVN6duckdb11IOExceptionE
__ZTVN6duckdb11MyTransportE
__ZTVN6duckdb12BaseTableRefE
__ZTVN6duckdb12BlockManagerE
__ZTVN6duckdb12ColumnReaderE
__ZTVN6duckdb12ColumnWriterE
__ZTVN6duckdb12CopyFunctionE
__ZTVN6duckdb12DeserializerE
__ZTVN6duckdb12FtsExtensionE
__ZTVN6duckdb12VectorBufferE
__ZTVN6duckdb13HTTPExceptionE
__ZTVN6duckdb13LimitModifierE
__ZTVN6duckdb13OrderModifierE
__ZTVN6duckdb13StrTimeFormatE
__ZTVN6duckdb13TableFunctionE
__ZTVN6duckdb14DuckTableEntryE
__ZTVN6duckdb14PhysicalDetachE
__ZTVN6duckdb14PragmaFunctionE
__ZTVN6duckdb14ScalarFunctionE
__ZTVN6duckdb14SimpleFunctionE
__ZTVN6duckdb14StrfTimeFormatE
__ZTVN6duckdb14StrpTimeFormatE
__ZTVN6duckdb14ZStdFileSystemE
__ZTVN6duckdb15CreateIndexInfoE
__ZTVN6duckdb15CreateTableInfoE
__ZTVN6duckdb15SelectStatementE
__ZTVN6duckdb16BinarySerializerE
__ZTVN6duckdb16CastColumnReaderE
__ZTVN6duckdb16DistinctModifierE
__ZTVN6duckdb16EnumColumnWriterE
__ZTVN6duckdb16ListColumnReaderE
__ZTVN6duckdb16ListColumnWriterE
__ZTVN6duckdb16ParquetExtensionE
__ZTVN6duckdb16PhysicalOperatorE
__ZTVN6duckdb16SetOperationNodeE
__ZTVN6duckdb16UUIDColumnReaderE
__ZTVN6duckdb16UUIDColumnWriterE
__ZTVN6duckdb17AggregateFunctionE
__ZTVN6duckdb17BasePipelineEventE
__ZTVN6duckdb17ColumnWriterStateE
__ZTVN6duckdb17ExpressionListRefE
__ZTVN6duckdb17IndexCatalogEntryE
__ZTVN6duckdb17TableCatalogEntryE
__ZTVN6duckdb17TableFunctionDataE
__ZTVN6duckdb17TableScanBindDataE
__ZTVN6duckdb17ZstdStreamWrapperE
__ZTVN6duckdb18BaseScalarFunctionE
__ZTVN6duckdb18BinaryDeserializerE
__ZTVN6duckdb18CreateFunctionInfoE
__ZTVN6duckdb18StringColumnReaderE
__ZTVN6duckdb18StringColumnWriterE
__ZTVN6duckdb18StructColumnReaderE
__ZTVN6duckdb18StructColumnWriterE
__ZTVN6duckdb19BooleanColumnReaderE
__ZTVN6duckdb19BooleanColumnWriterE
__ZTVN6duckdb19CreateCollationInfoE
__ZTVN6duckdb19DecimalColumnReaderINS_9hugeint_tELb0EEE
__ZTVN6duckdb19DecimalColumnReaderINS_9hugeint_tELb1EEE
__ZTVN6duckdb19DecimalColumnReaderIiLb0EEE
__ZTVN6duckdb19DecimalColumnReaderIiLb1EEE
__ZTVN6duckdb19DecimalColumnReaderIsLb0EEE
__ZTVN6duckdb19DecimalColumnReaderIsLb1EEE
__ZTVN6duckdb19DecimalColumnReaderIxLb0EEE
__ZTVN6duckdb19DecimalColumnReaderIxLb1EEE
__ZTVN6duckdb19EnumWriterPageStateE
__ZTVN6duckdb19LogicalLimitPercentE
__ZTVN6duckdb19ParquetReadBindDataE
__ZTVN6duckdb19ThriftFileTransportE
__ZTVN6duckdb20BoundCheckConstraintE
__ZTVN6duckdb20CallbackColumnReaderINS_5Int96ENS_11timestamp_tEXadL_ZNS_26ImpalaTimestampToTimestampERKS1_EEEE
__ZTVN6duckdb20CallbackColumnReaderIiNS_6date_tEXadL_ZNS_16ParquetIntToDateERKiEEEE
__ZTVN6duckdb20CallbackColumnReaderIiNS_7dtime_tEXadL_ZNS_18ParquetIntToTimeMsERKiEEEE
__ZTVN6duckdb20CallbackColumnReaderIxNS_10dtime_tz_tEXadL_ZNS_18ParquetIntToTimeTZERKxEEEE
__ZTVN6duckdb20CallbackColumnReaderIxNS_11timestamp_tEXadL_ZNS_29ParquetTimestampMsToTimestampERKxEEEE
__ZTVN6duckdb20CallbackColumnReaderIxNS_11timestamp_tEXadL_ZNS_29ParquetTimestampNsToTimestampERKxEEEE
__ZTVN6duckdb20CallbackColumnReaderIxNS_11timestamp_tEXadL_ZNS_33ParquetTimestampMicrosToTimestampERKxEEEE
__ZTVN6duckdb20CallbackColumnReaderIxNS_7dtime_tEXadL_ZNS_16ParquetIntToTimeERKxEEEE
__ZTVN6duckdb20CallbackColumnReaderIxNS_7dtime_tEXadL_ZNS_18ParquetIntToTimeNsERKxEEEE
__ZTVN6duckdb20InMemoryBlockManagerE
__ZTVN6duckdb20IntervalColumnReaderE
__ZTVN6duckdb20IntervalColumnWriterE
__ZTVN6duckdb20LimitPercentModifierE
__ZTVN6duckdb20ParquetWriteBindDataE
__ZTVN6duckdb20StandardColumnWriterINS_10dtime_tz_tExNS_21ParquetTimeTZOperatorEEE
__ZTVN6duckdb20StandardColumnWriterINS_9hugeint_tEdNS_22ParquetHugeintOperatorEEE
__ZTVN6duckdb20StandardColumnWriterIaiNS_19ParquetCastOperatorEEE
__ZTVN6duckdb20StandardColumnWriterIddNS_19ParquetCastOperatorEEE
__ZTVN6duckdb20StandardColumnWriterIffNS_19ParquetCastOperatorEEE
__ZTVN6duckdb20StandardColumnWriterIhiNS_19ParquetCastOperatorEEE
__ZTVN6duckdb20StandardColumnWriterIiiNS_19ParquetCastOperatorEEE
__ZTVN6duckdb20StandardColumnWriterIjjNS_19ParquetCastOperatorEEE
__ZTVN6duckdb20StandardColumnWriterIsiNS_19ParquetCastOperatorEEE
__ZTVN6duckdb20StandardColumnWriterItiNS_19ParquetCastOperatorEEE
__ZTVN6duckdb20StandardColumnWriterIxxNS_19ParquetCastOperatorEEE
__ZTVN6duckdb20StandardColumnWriterIxxNS_25ParquetTimestampSOperatorEEE
__ZTVN6duckdb20StandardColumnWriterIxxNS_26ParquetTimestampNSOperatorEEE
__ZTVN6duckdb20StandardColumnWriterIyyNS_19ParquetCastOperatorEEE
__ZTVN6duckdb21BoundUniqueConstraintE
__ZTVN6duckdb21ListColumnWriterStateE
__ZTVN6duckdb21ParquetReadLocalStateE
__ZTVN6duckdb21ParquetSchemaFunctionE
__ZTVN6duckdb21ParquetWriteBatchDataE
__ZTVN6duckdb21RowNumberColumnReaderE
__ZTVN6duckdb21StringStatisticsStateE
__ZTVN6duckdb21StringWriterPageStateE
__ZTVN6duckdb21TemplatedColumnReaderINS_10dtime_tz_tENS_30CallbackParquetValueConversionIxS1_XadL_ZNS_18ParquetIntToTimeTZERKxEEEEEE
__ZTVN6duckdb21TemplatedColumnReaderINS_10interval_tENS_23IntervalValueConversionEEE
__ZTVN6duckdb21TemplatedColumnReaderINS_11timestamp_tENS_30CallbackParquetValueConversionINS_5Int96ES1_XadL_ZNS_26ImpalaTimestampToTimestampERKS3_EEEEEE
__ZTVN6duckdb21TemplatedColumnReaderINS_11timestamp_tENS_30CallbackParquetValueConversionIxS1_XadL_ZNS_29ParquetTimestampMsToTimestampERKxEEEEEE
__ZTVN6duckdb21TemplatedColumnReaderINS_11timestamp_tENS_30CallbackParquetValueConversionIxS1_XadL_ZNS_29ParquetTimestampNsToTimestampERKxEEEEEE
__ZTVN6duckdb21TemplatedColumnReaderINS_11timestamp_tENS_30CallbackParquetValueConversionIxS1_XadL_ZNS_33ParquetTimestampMicrosToTimestampERKxEEEEEE
__ZTVN6duckdb21TemplatedColumnReaderINS_6date_tENS_30CallbackParquetValueConversionIiS1_XadL_ZNS_16ParquetIntToDateERKiEEEEEE
__ZTVN6duckdb21TemplatedColumnReaderINS_7dtime_tENS_30CallbackParquetValueConversionIiS1_XadL_ZNS_18ParquetIntToTimeMsERKiEEEEEE
__ZTVN6duckdb21TemplatedColumnReaderINS_7dtime_tENS_30CallbackParquetValueConversionIxS1_XadL_ZNS_16ParquetIntToTimeERKxEEEEEE
__ZTVN6duckdb21TemplatedColumnReaderINS_7dtime_tENS_30CallbackParquetValueConversionIxS1_XadL_ZNS_18ParquetIntToTimeNsERKxEEEEEE
__ZTVN6duckdb21TemplatedColumnReaderINS_8string_tENS_28StringParquetValueConversionEEE
__ZTVN6duckdb21TemplatedColumnReaderINS_9hugeint_tENS_19UUIDValueConversionEEE
__ZTVN6duckdb21TemplatedColumnReaderINS_9hugeint_tENS_29DecimalParquetValueConversionIS1_Lb0EEEEE
__ZTVN6duckdb21TemplatedColumnReaderINS_9hugeint_tENS_29DecimalParquetValueConversionIS1_Lb1EEEEE
__ZTVN6duckdb21TemplatedColumnReaderIaNS_31TemplatedParquetValueConversionIiEEEE
__ZTVN6duckdb21TemplatedColumnReaderIbNS_29BooleanParquetValueConversionEEE
__ZTVN6duckdb21TemplatedColumnReaderIdNS_31TemplatedParquetValueConversionIdEEEE
__ZTVN6duckdb21TemplatedColumnReaderIfNS_31TemplatedParquetValueConversionIfEEEE
__ZTVN6duckdb21TemplatedColumnReaderIhNS_31TemplatedParquetValueConversionIjEEEE
__ZTVN6duckdb21TemplatedColumnReaderIiNS_29DecimalParquetValueConversionIiLb0EEEEE
__ZTVN6duckdb21TemplatedColumnReaderIiNS_29DecimalParquetValueConversionIiLb1EEEEE
__ZTVN6duckdb21TemplatedColumnReaderIiNS_31TemplatedParquetValueConversionIiEEEE
__ZTVN6duckdb21TemplatedColumnReaderIiNS_31TemplatedParquetValueConversionIxEEEE
__ZTVN6duckdb21TemplatedColumnReaderIjNS_31TemplatedParquetValueConversionIjEEEE
__ZTVN6duckdb21TemplatedColumnReaderIsNS_29DecimalParquetValueConversionIsLb0EEEEE
__ZTVN6duckdb21TemplatedColumnReaderIsNS_29DecimalParquetValueConversionIsLb1EEEEE
__ZTVN6duckdb21TemplatedColumnReaderIsNS_31TemplatedParquetValueConversionIiEEEE
__ZTVN6duckdb21TemplatedColumnReaderIsNS_31TemplatedParquetValueConversionIxEEEE
__ZTVN6duckdb21TemplatedColumnReaderItNS_31TemplatedParquetValueConversionIjEEEE
__ZTVN6duckdb21TemplatedColumnReaderIxNS_29DecimalParquetValueConversionIxLb0EEEEE
__ZTVN6duckdb21TemplatedColumnReaderIxNS_29DecimalParquetValueConversionIxLb1EEEEE
__ZTVN6duckdb21TemplatedColumnReaderIxNS_31TemplatedParquetValueConversionIiEEEE
__ZTVN6duckdb21TemplatedColumnReaderIxNS_31TemplatedParquetValueConversionIxEEEE
__ZTVN6duckdb21TemplatedColumnReaderIyNS_31TemplatedParquetValueConversionIyEEEE
__ZTVN6duckdb22BasicColumnWriterStateE
__ZTVN6duckdb22BooleanStatisticsStateE
__ZTVN6duckdb22BooleanWriterPageStateE
__ZTVN6duckdb22BoundNotNullConstraintE
__ZTVN6duckdb22ColumnWriterStatisticsE
__ZTVN6duckdb22CreateCopyFunctionInfoE
__ZTVN6duckdb22FixedDecimalStatisticsE
__ZTVN6duckdb22NumericStatisticsStateINS_10dtime_tz_tExNS_19BaseParquetOperatorEEE
__ZTVN6duckdb22NumericStatisticsStateIaiNS_19BaseParquetOperatorEEE
__ZTVN6duckdb22NumericStatisticsStateIddNS_19BaseParquetOperatorEEE
__ZTVN6duckdb22NumericStatisticsStateIffNS_19BaseParquetOperatorEEE
__ZTVN6duckdb22NumericStatisticsStateIhiNS_19BaseParquetOperatorEEE
__ZTVN6duckdb22NumericStatisticsStateIiiNS_19BaseParquetOperatorEEE
__ZTVN6duckdb22NumericStatisticsStateIjjNS_19BaseParquetOperatorEEE
__ZTVN6duckdb22NumericStatisticsStateIsiNS_19BaseParquetOperatorEEE
__ZTVN6duckdb22NumericStatisticsStateItiNS_19BaseParquetOperatorEEE
__ZTVN6duckdb22NumericStatisticsStateIxxNS_19BaseParquetOperatorEEE
__ZTVN6duckdb22NumericStatisticsStateIyyNS_19BaseParquetOperatorEEE
__ZTVN6duckdb22ParquetReadGlobalStateE
__ZTVN6duckdb22ParquetWriteLocalStateE
__ZTVN6duckdb22VariableReturnBindDataE
__ZTVN6duckdb23CreateTableFunctionInfoE
__ZTVN6duckdb23ParquetMetaDataBindDataE
__ZTVN6duckdb23ParquetMetaDataFunctionE
__ZTVN6duckdb23ParquetWriteGlobalStateE
__ZTVN6duckdb23StringColumnWriterStateE
__ZTVN6duckdb23StructColumnWriterStateE
__ZTVN6duckdb24CreatePragmaFunctionInfoE
__ZTVN6duckdb24CreateScalarFunctionInfoE
__ZTVN6duckdb24FixedDecimalColumnWriterE
__ZTVN6duckdb24ParquetFileMetadataCacheE
__ZTVN6duckdb25BoundForeignKeyConstraintE
__ZTVN6duckdb25ParquetStringVectorBufferE
__ZTVN6duckdb27ParquetMetaDataOperatorDataE
__ZTVN6duckdb28SimpleNamedParameterFunctionE
__ZTVN6duckdb5EventE
__ZTVN6duckdb7JoinRefE
__ZTVN6duckdb8DropInfoE
__ZTVN6duckdb8FunctionE
__ZTVN6duckdb8PivotRefE
__ZTVN6duckdb8ZStdFileE
__ZTVN6duckdb9ExceptionE
__ZTVN6duckdb9QueryNodeE
__ZTVNSt3__210__back_refIcEE
__ZTVNSt3__210__function6__funcIPFvRN6duckdb9DataChunkERNS2_15ExpressionStateERNS2_6VectorEENS_9allocatorISA_EES9_EE
__ZTVNSt3__211__alternateIcEE
__ZTVNSt3__211__end_stateIcEE
__ZTVNSt3__211__lookaheadIcNS_12regex_traitsIcEEEE
__ZTVNSt3__211__match_anyIcEE
__ZTVNSt3__212__match_charIcEE
__ZTVNSt3__212bad_weak_ptrE
__ZTVNSt3__212future_errorE
__ZTVNSt3__213__empty_stateIcEE
__ZTVNSt3__214basic_ifstreamIcNS_11char_traitsIcEEEE
__ZTVNSt3__214basic_ofstreamIcNS_11char_traitsIcEEEE
__ZTVNSt3__215__word_boundaryIcNS_12regex_traitsIcEEEE
__ZTVNSt3__215basic_stringbufIcNS_11char_traitsIcEENS_9allocatorIcEEEE
__ZTVNSt3__216__back_ref_icaseIcNS_12regex_traitsIcEEEE
__ZTVNSt3__216__owns_one_stateIcEE
__ZTVNSt3__217__assoc_sub_stateE
__ZTVNSt3__217__owns_two_statesIcEE
__ZTVNSt3__217__repeat_one_loopIcEE
__ZTVNSt3__217bad_function_callE
__ZTVNSt3__218__back_ref_collateIcNS_12regex_traitsIcEEEE
__ZTVNSt3__218__match_char_icaseIcNS_12regex_traitsIcEEEE
__ZTVNSt3__218basic_stringstreamIcNS_11char_traitsIcEENS_9allocatorIcEEEE
__ZTVNSt3__219basic_istringstreamIcNS_11char_traitsIcEENS_9allocatorIcEEEE
__ZTVNSt3__219basic_ostringstreamIcNS_11char_traitsIcEENS_9allocatorIcEEEE
__ZTVNSt3__220__bracket_expressionIcNS_12regex_traitsIcEEEE
__ZTVNSt3__220__l_anchor_multilineIcEE
__ZTVNSt3__220__match_char_collateIcNS_12regex_traitsIcEEEE
__ZTVNSt3__220__r_anchor_multilineIcEE
__ZTVNSt3__220__shared_ptr_emplaceIN6duckdb11MyTransportENS_9allocatorIS2_EEEE
__ZTVNSt3__220__shared_ptr_emplaceIN6duckdb12JoinRelationENS_9allocatorIS2_EEEE
__ZTVNSt3__220__shared_ptr_emplaceIN6duckdb13HTTPExceptionENS_9allocatorIS2_EEEE
__ZTVNSt3__220__shared_ptr_emplaceIN6duckdb13LimitRelationENS_9allocatorIS2_EEEE
__ZTVNSt3__220__shared_ptr_emplaceIN6duckdb13OrderRelationENS_9allocatorIS2_EEEE
__ZTVNSt3__220__shared_ptr_emplaceIN6duckdb13ParquetReaderENS_9allocatorIS2_EEEE
__ZTVNSt3__220__shared_ptr_emplaceIN6duckdb13SelectionDataENS_9allocatorIS2_EEEE
__ZTVNSt3__220__shared_ptr_emplaceIN6duckdb13SetOpRelationENS_9allocatorIS2_EEEE
__ZTVNSt3__220__shared_ptr_emplaceIN6duckdb14FilterRelationENS_9allocatorIS2_EEEE
__ZTVNSt3__220__shared_ptr_emplaceIN6duckdb16ResizeableBufferENS_9allocatorIS2_EEEE
__ZTVNSt3__220__shared_ptr_emplaceIN6duckdb17AggregateRelationENS_9allocatorIS2_EEEE
__ZTVNSt3__220__shared_ptr_emplaceIN6duckdb18ProjectionRelationENS_9allocatorIS2_EEEE
__ZTVNSt3__220__shared_ptr_emplaceIN6duckdb19ThriftFileTransportENS_9allocatorIS2_EEEE
__ZTVNSt3__220__shared_ptr_emplaceIN6duckdb20CrossProductRelationENS_9allocatorIS2_EEEE
__ZTVNSt3__220__shared_ptr_emplaceIN6duckdb21TemplatedValidityDataIyEENS_9allocatorIS3_EEEE
__ZTVNSt3__220__shared_ptr_emplaceIN6duckdb24ParquetFileMetadataCacheENS_9allocatorIS2_EEEE
__ZTVNSt3__220__shared_ptr_emplaceIN6duckdb25ParquetStringVectorBufferENS_9allocatorIS2_EEEE
__ZTVNSt3__220__shared_ptr_emplaceIN6duckdb9DataTableENS_9allocatorIS2_EEEE
__ZTVNSt3__220__shared_ptr_emplaceIN6duckdb9ExceptionENS_9allocatorIS2_EEEE
__ZTVNSt3__220__shared_ptr_pointerIPN13duckdb_apache6thrift8protocol9TProtocolENS_10shared_ptrIS4_E27__shared_ptr_default_deleteIS4_S4_EENS_9allocatorIS4_EEEE
__ZTVNSt3__220__shared_ptr_pointerIPN6duckdb13ParquetReaderENS_14default_deleteIS2_EENS_9allocatorIS2_EEEE
__ZTVNSt3__220__shared_ptr_pointerIPNS_13__empty_stateIcEENS_10shared_ptrIS2_E27__shared_ptr_default_deleteIS2_S2_EENS_9allocatorIS2_EEEE
__ZTVNSt3__221__empty_non_own_stateIcEE
__ZTVNSt3__223__match_any_but_newlineIcEE
__ZTVNSt3__226__end_marked_subexpressionIcEE
__ZTVNSt3__228__begin_marked_subexpressionIcEE
__ZTVNSt3__26__loopIcEE
__ZTVSt12domain_error
__ZTVSt12length_error
__ZTVSt12out_of_range
__ZTVSt16invalid_argument
__ZTVSt9exception
__ZdaPv
__ZdlPv
__Znam
__Znwm
__ZnwmRKSt9nothrow_t
___addtf3
___cxa_allocate_exception
___cxa_atexit
___cxa_bad_cast
___cxa_bad_typeid
___cxa_begin_catch
___cxa_end_catch
___cxa_free_exception
___cxa_get_exception_ptr
___cxa_pure_virtual
___cxa_rethrow
___cxa_throw
___divtf3
___dynamic_cast
___errno_location
___extenddftf2
___fixtfsi
___floatditf
___floatsitf
___getf2
___gttf2
___lttf2
___multf3
___multi3
___small_sprintf
___subtf3
___trunctfdf2
___wasm_lpad_context
__embind_register_bindings
__embind_register_function
_access
_acos
_arabic_UTF_8_close_env
_arabic_UTF_8_create_env
_arabic_UTF_8_stem
_asin
_atan
_atan2
_atof
_atoi
_atol
_basque_UTF_8_close_env
_basque_UTF_8_create_env
_basque_UTF_8_stem
_bsearch
_calloc
_catalan_UTF_8_close_env
_catalan_UTF_8_create_env
_catalan_UTF_8_stem
_clearerr
_clock
_close
_cos
_ctime
_danish_UTF_8_close_env
_danish_UTF_8_create_env
_danish_UTF_8_stem
_div
_dlclose
_dlerror
_dlopen
_dlsym
_duckdb_web_clear_response
_duckdb_web_collect_file_stats
_duckdb_web_connect
_duckdb_web_copy_file_to_buffer
_duckdb_web_copy_file_to_path
_duckdb_web_disconnect
_duckdb_web_export_file_stats
_duckdb_web_fail_with
_duckdb_web_flush_file
_duckdb_web_flush_files
_duckdb_web_fs_drop_file
_duckdb_web_fs_drop_files
_duckdb_web_fs_get_file_info_by_id
_duckdb_web_fs_get_file_info_by_name
_duckdb_web_fs_glob_add_path
_duckdb_web_fs_glob_file_infos
_duckdb_web_fs_register_file_buffer
_duckdb_web_fs_register_file_url
_duckdb_web_get_feature_flags
_duckdb_web_get_global_file_info
_duckdb_web_get_tablenames
_duckdb_web_get_version
_duckdb_web_insert_arrow_from_ipc_stream
_duckdb_web_insert_csv_from_path
_duckdb_web_insert_json_from_path
_duckdb_web_open
_duckdb_web_pending_query_cancel
_duckdb_web_pending_query_poll
_duckdb_web_pending_query_start
_duckdb_web_prepared_close
_duckdb_web_prepared_create
_duckdb_web_prepared_run
_duckdb_web_prepared_send
_duckdb_web_query_fetch_results
_duckdb_web_query_run
_duckdb_web_reset
_duckdb_web_tokenize
_duckdb_web_udf_scalar_create
_dutch_UTF_8_close_env
_dutch_UTF_8_create_env
_dutch_UTF_8_stem
_emscripten_log
_english_UTF_8_close_env
_english_UTF_8_create_env
_english_UTF_8_stem
_fchmod
_fchown
_fclose
_fcntl
_ferror
_fflush
_fgets
_finnish_UTF_8_close_env
_finnish_UTF_8_create_env
_finnish_UTF_8_stem
_fiprintf
_fmod
_fopen
_fputc
_fputs
_fread
_free
_french_UTF_8_close_env
_french_UTF_8_create_env
_french_UTF_8_stem
_fseek
_fstat
_fsync
_ftell
_ftruncate
_fwrite
_german_UTF_8_close_env
_german_UTF_8_create_env
_german_UTF_8_stem
_getc
_getcwd
_getenv
_geteuid
_getpid
_gettimeofday
_gmtime
_gmtime_r
_greek_UTF_8_close_env
_greek_UTF_8_create_env
_greek_UTF_8_stem
_hindi_UTF_8_close_env
_hindi_UTF_8_create_env
_hindi_UTF_8_stem
_hungarian_UTF_8_close_env
_hungarian_UTF_8_create_env
_hungarian_UTF_8_stem
_indonesian_UTF_8_close_env
_indonesian_UTF_8_create_env
_indonesian_UTF_8_stem
_iprintf
_irish_UTF_8_close_env
_irish_UTF_8_create_env
_irish_UTF_8_stem
_isalnum
_isspace
_isupper
_iswdigit
_isxdigit
_italian_UTF_8_close_env
_italian_UTF_8_create_env
_italian_UTF_8_stem
_lithuanian_UTF_8_close_env
_lithuanian_UTF_8_create_env
_lithuanian_UTF_8_stem
_localtime
_localtime_r
_log
_log10
_lseek
_lstat
_main
_malloc
_memchr
_memcmp
_memcpy
_memmove
_memset
_mkdir
_mktime
_mmap
_modf
_munmap
_nepali_UTF_8_close_env
_nepali_UTF_8_create_env
_nepali_UTF_8_stem
_norwegian_UTF_8_close_env
_norwegian_UTF_8_create_env
_norwegian_UTF_8_stem
_ntohl
_open
_perror
_porter_UTF_8_close_env
_porter_UTF_8_create_env
_porter_UTF_8_stem
_portuguese_UTF_8_close_env
_portuguese_UTF_8_create_env
_portuguese_UTF_8_stem
_pow
_printf
_pthread_create
_pthread_join
_pthread_mutex_destroy
_pthread_mutex_init
_pthread_mutex_lock
_pthread_mutex_trylock
_pthread_mutex_unlock
_pthread_mutexattr_destroy
_pthread_mutexattr_init
_pthread_mutexattr_settype
_pthread_self
_pthread_setspecific
_putchar
_puts
_qsort
_read
_readlink
_realloc
_rewind
_rmdir
_romanian_UTF_8_close_env
_romanian_UTF_8_create_env
_romanian_UTF_8_stem
_round
_russian_UTF_8_close_env
_russian_UTF_8_create_env
_russian_UTF_8_stem
_serbian_UTF_8_close_env
_serbian_UTF_8_create_env
_serbian_UTF_8_stem
_setlocale
_signal
_sin
_siprintf
_sleep
_snprintf
_spanish_UTF_8_close_env
_spanish_UTF_8_create_env
_spanish_UTF_8_stem
_sscanf
_stat
_stderr
_stdin
_strcasecmp
_strcat
_strchr
_strcmp
_strcpy
_strcspn
_strdup
_strerror
_strlen
_strncasecmp
_strncat
_strncmp
_strncpy
_strpbrk
_strrchr
_strstr
_strtod
_strtof
_strtok
_strtol
_strtoll
_strtoul
_strtoull
_swedish_UTF_8_close_env
_swedish_UTF_8_create_env
_swedish_UTF_8_stem
_swprintf
_sysconf
_tamil_UTF_8_close_env
_tamil_UTF_8_create_env
_tamil_UTF_8_stem
_tan
_time
_timezone
_tolower
_toupper
_towupper
_turkish_UTF_8_close_env
_turkish_UTF_8_create_env
_turkish_UTF_8_stem
_tzname
_tzset
_unlink
_utimes
_vsnprintf
_wcslen
_wmemchr
_wmemcmp
_write
